EXPORTS 
	?$TSS0@?1??manage_caching_sizes@internal@Eigen@@YAXW4Action@3@PEA_J11@Z@4HA 	 DATA
	??_R0?AV?$_Iosb@H@std@@@8 	 DATA
	??_R0?AV?$_Ref_count_obj2@VServerControllerView@@@std@@@8 	 DATA
	??_R0?AV?$basic_filebuf@DU?$char_traits@D@std@@@std@@@8 	 DATA
	??_R0?AV?$basic_ios@DU?$char_traits@D@std@@@std@@@8 	 DATA
	??_R0?AV?$basic_iostream@DU?$char_traits@D@std@@@std@@@8 	 DATA
	??_R0?AV?$basic_istream@DU?$char_traits@D@std@@@std@@@8 	 DATA
	??_R0?AV?$basic_ofstream@DU?$char_traits@D@std@@@std@@@8 	 DATA
	??_R0?AV?$basic_ostream@DU?$char_traits@D@std@@@std@@@8 	 DATA
	??_R0?AV?$basic_streambuf@DU?$char_traits@D@std@@@std@@@8 	 DATA
	??_R0?AV?$basic_stringbuf@DU?$char_traits@D@std@@V?$allocator@D@2@@std@@@8 	 DATA
	??_R0?AV?$basic_stringstream@DU?$char_traits@D@std@@V?$allocator@D@2@@std@@@8 	 DATA
	??_R0?AVIDeviceInterface@@@8 	 DATA
	??_R0?AVPSMoveControllerDeviceInterface@@@8 	 DATA
	??_R0?AVServerControllerView@@@8 	 DATA
	??_R0?AVServerDeviceView@@@8 	 DATA
	??_R0?AV_Ref_count_base@std@@@8 	 DATA
	??_R0?AVbad_alloc@std@@@8 	 DATA
	??_R0?AVbad_array_new_length@std@@@8 	 DATA
	??_R0?AVbad_cast@std@@@8 	 DATA
	??_R0?AVexception@std@@@8 	 DATA
	??_R0?AVios_base@std@@@8 	 DATA
	??_R0?AVruntime_error@std@@@8 	 DATA
	?_Psave@?$_Facetptr@V?$codecvt@DDU_Mbstatet@@@std@@@std@@2PEBVfacet@locale@2@EB 	 DATA
	?_Psave@?$_Facetptr@V?$time_put@DV?$ostreambuf_iterator@DU?$char_traits@D@std@@@std@@@std@@@std@@2PEBVfacet@locale@2@EB 	 DATA
	?_Stinit@?1??_Init@?$basic_filebuf@DU?$char_traits@D@std@@@std@@IEAAXPEAU_iobuf@@W4_Initfl@23@@Z@4U_Mbstatet@@A 	 DATA
	?currentLevel@LoggerUtil@@0W4LogLevel@@A 	 DATA
	?logFile@LoggerUtil@@0V?$basic_ofstream@DU?$char_traits@D@std@@@std@@A 	 DATA
	?m_cacheSizes@?1??manage_caching_sizes@internal@Eigen@@YAXW4Action@3@PEA_J11@Z@4UCacheSizes@23@A 	 DATA
	?s_instance@DeviceManager@@0PEAV1@EA 	 DATA
	??$?4V?$CwiseNullaryOp@U?$scalar_constant_op@M@internal@Eigen@@V?$Matrix@M$02$02$0A@$02$02@3@@Eigen@@@?$TriangularViewImpl@V?$Matrix@M$02$02$0A@$02$02@Eigen@@$09UDense@2@@Eigen@@QEAAAEAV?$TriangularView@V?$Matrix@M$02$02$0A@$02$02@Eigen@@$09@1@AEBV?$MatrixBase@V?$CwiseNullaryOp@U?$scalar_constant_op@M@internal@Eigen@@V?$Matrix@M$02$02$0A@$02$02@3@@Eigen@@@1@@Z
	??$?4V?$PermutationMatrix@$01$01H@Eigen@@@?$MatrixBase@V?$Matrix@M$01$01$0A@$01$01@Eigen@@@Eigen@@QEAAAEAV?$Matrix@M$01$01$0A@$01$01@1@AEBU?$EigenBase@V?$PermutationMatrix@$01$01H@Eigen@@@1@@Z
	??$?4V?$TriangularView@$$CBV?$Transpose@$$CBV?$Block@$$CBV?$Matrix@M$02$01$0A@$02$01@Eigen@@$0?0$0?0$0A@@Eigen@@@Eigen@@$00@Eigen@@@?$MatrixBase@V?$Matrix@M$01$01$0A@$01$01@Eigen@@@Eigen@@QEAAAEAV?$Matrix@M$01$01$0A@$01$01@1@AEBU?$EigenBase@V?$TriangularView@$$CBV?$Transpose@$$CBV?$Block@$$CBV?$Matrix@M$02$01$0A@$02$01@Eigen@@$0?0$0?0$0A@@Eigen@@@Eigen@@$00@Eigen@@@1@@Z
	??$?6DU?$char_traits@D@std@@@std@@YAAEAV?$basic_ostream@DU?$char_traits@D@std@@@0@AEAV10@AEBU?$_Timeobj@DPEBUtm@@@0@@Z
	??$?6DU?$char_traits@D@std@@V?$allocator@D@1@@std@@YAAEAV?$basic_ostream@DU?$char_traits@D@std@@@0@AEAV10@AEBV?$basic_string@DU?$char_traits@D@std@@V?$allocator@D@2@@0@@Z
	??$?6U?$char_traits@D@std@@@std@@YAAEAV?$basic_ostream@DU?$char_traits@D@std@@@0@AEAV10@PEBD@Z
	??$?6V?$Transpose@V?$Matrix@M$02$00$0A@$02$00@Eigen@@@Eigen@@@?$DenseBase@V?$Matrix@M$01$02$0A@$01$02@Eigen@@@Eigen@@QEAA?AU?$CommaInitializer@V?$Matrix@M$01$02$0A@$01$02@Eigen@@@1@AEBV?$DenseBase@V?$Transpose@V?$Matrix@M$02$00$0A@$02$00@Eigen@@@Eigen@@@1@@Z
	??$?9VPSMoveControllerDeviceInterface@@U?$default_delete@VPSMoveControllerDeviceInterface@@@std@@@std@@YA_NAEBV?$unique_ptr@VPSMoveControllerDeviceInterface@@U?$default_delete@VPSMoveControllerDeviceInterface@@@std@@@0@$$T@Z
	??$?DV?$Block@$$CBV?$Matrix@M$02$01$0A@$02$01@Eigen@@$0?0$00$0A@@Eigen@@@?$MatrixBase@V?$Block@V?$Block@V?$Matrix@M$02$02$0A@$02$02@Eigen@@$0?0$0?0$0A@@Eigen@@$0?0$0?0$0A@@Eigen@@@Eigen@@QEBA?BV?$Product@V?$Block@V?$Block@V?$Matrix@M$02$02$0A@$02$02@Eigen@@$0?0$0?0$0A@@Eigen@@$0?0$0?0$0A@@Eigen@@V?$Block@$$CBV?$Matrix@M$02$01$0A@$02$01@Eigen@@$0?0$00$0A@@2@$0A@@1@AEBV?$MatrixBase@V?$Block@$$CBV?$Matrix@M$02$01$0A@$02$01@Eigen@@$0?0$00$0A@@Eigen@@@1@@Z
	??$?DV?$Block@V?$Block@V?$Matrix@M$02$01$0A@$02$01@Eigen@@$0?0$0?0$0A@@Eigen@@$0?0$0?0$0A@@Eigen@@@?$MatrixBase@V?$Transpose@$$CBV?$Block@V?$Block@V?$Matrix@M$02$01$0A@$02$01@Eigen@@$02$00$00@Eigen@@$0?0$00$0A@@Eigen@@@Eigen@@@Eigen@@QEBA?BV?$Product@V?$Transpose@$$CBV?$Block@V?$Block@V?$Matrix@M$02$01$0A@$02$01@Eigen@@$02$00$00@Eigen@@$0?0$00$0A@@Eigen@@@Eigen@@V?$Block@V?$Block@V?$Matrix@M$02$01$0A@$02$01@Eigen@@$0?0$0?0$0A@@Eigen@@$0?0$0?0$0A@@2@$0A@@1@AEBV?$MatrixBase@V?$Block@V?$Block@V?$Matrix@M$02$01$0A@$02$01@Eigen@@$0?0$0?0$0A@@Eigen@@$0?0$0?0$0A@@Eigen@@@1@@Z
	??$?DV?$Block@V?$Block@V?$Matrix@M$02$02$0A@$02$02@Eigen@@$0?0$0?0$0A@@Eigen@@$0?0$0?0$0A@@Eigen@@@?$MatrixBase@V?$Transpose@$$CBV?$Block@$$CBV?$Matrix@M$02$01$0A@$02$01@Eigen@@$0?0$00$0A@@Eigen@@@Eigen@@@Eigen@@QEBA?BV?$Product@V?$Transpose@$$CBV?$Block@$$CBV?$Matrix@M$02$01$0A@$02$01@Eigen@@$0?0$00$0A@@Eigen@@@Eigen@@V?$Block@V?$Block@V?$Matrix@M$02$02$0A@$02$02@Eigen@@$0?0$0?0$0A@@Eigen@@$0?0$0?0$0A@@2@$0A@@1@AEBV?$MatrixBase@V?$Block@V?$Block@V?$Matrix@M$02$02$0A@$02$02@Eigen@@$0?0$0?0$0A@@Eigen@@$0?0$0?0$0A@@Eigen@@@1@@Z
	??$?DV?$Map@V?$Matrix@M$00$0?0$00$00$01@Eigen@@$0A@V?$Stride@$0A@$0A@@2@@Eigen@@@?$MatrixBase@V?$CwiseBinaryOp@U?$scalar_product_op@MM@internal@Eigen@@$$CBV?$CwiseNullaryOp@U?$scalar_constant_op@M@internal@Eigen@@$$CBV?$Matrix@M$0?0$00$0A@$02$00@3@@3@$$CBV?$Block@V?$Block@V?$Matrix@M$02$01$0A@$02$01@Eigen@@$02$00$00@Eigen@@$0?0$00$0A@@3@@Eigen@@@Eigen@@QEBA?BV?$Product@V?$CwiseBinaryOp@U?$scalar_product_op@MM@internal@Eigen@@$$CBV?$CwiseNullaryOp@U?$scalar_constant_op@M@internal@Eigen@@$$CBV?$Matrix@M$0?0$00$0A@$02$00@3@@3@$$CBV?$Block@V?$Block@V?$Matrix@M$02$01$0A@$02$01@Eigen@@$02$00$00@Eigen@@$0?0$00$0A@@3@@Eigen@@V?$Map@V?$Matrix@M$00$0?0$00$00$01@Eigen@@$0A@V?$Stride@$0A@$0A@@2@@2@$0A@@1@AEBV?$MatrixBase@V?$Map@V?$Matrix@M$00$0?0$00$00$01@Eigen@@$0A@V?$Stride@$0A@$0A@@2@@Eigen@@@1@@Z
	??$?DV?$Map@V?$Matrix@M$00$0?0$00$00$02@Eigen@@$0A@V?$Stride@$0A@$0A@@2@@Eigen@@@?$MatrixBase@V?$CwiseBinaryOp@U?$scalar_product_op@MM@internal@Eigen@@$$CBV?$CwiseNullaryOp@U?$scalar_constant_op@M@internal@Eigen@@$$CBV?$Matrix@M$0?0$00$0A@$02$00@3@@3@$$CBV?$Block@$$CBV?$Matrix@M$02$01$0A@$02$01@Eigen@@$0?0$00$0A@@3@@Eigen@@@Eigen@@QEBA?BV?$Product@V?$CwiseBinaryOp@U?$scalar_product_op@MM@internal@Eigen@@$$CBV?$CwiseNullaryOp@U?$scalar_constant_op@M@internal@Eigen@@$$CBV?$Matrix@M$0?0$00$0A@$02$00@3@@3@$$CBV?$Block@$$CBV?$Matrix@M$02$01$0A@$02$01@Eigen@@$0?0$00$0A@@3@@Eigen@@V?$Map@V?$Matrix@M$00$0?0$00$00$02@Eigen@@$0A@V?$Stride@$0A@$0A@@2@@2@$0A@@1@AEBV?$MatrixBase@V?$Map@V?$Matrix@M$00$0?0$00$00$02@Eigen@@$0A@V?$Stride@$0A@$0A@@2@@Eigen@@@1@@Z
	??$?DV?$Transpose@$$CBV?$Block@$$CBV?$Matrix@M$02$01$0A@$02$01@Eigen@@$0?0$00$0A@@Eigen@@@Eigen@@@?$MatrixBase@V?$CwiseBinaryOp@U?$scalar_product_op@MM@internal@Eigen@@$$CBV?$CwiseNullaryOp@U?$scalar_constant_op@M@internal@Eigen@@$$CBV?$Matrix@M$0?0$00$0A@$02$00@3@@3@$$CBV?$Map@V?$Matrix@M$0?0$00$0A@$02$00@Eigen@@$0A@V?$Stride@$0A@$0A@@2@@3@@Eigen@@@Eigen@@QEBA?BV?$Product@V?$CwiseBinaryOp@U?$scalar_product_op@MM@internal@Eigen@@$$CBV?$CwiseNullaryOp@U?$scalar_constant_op@M@internal@Eigen@@$$CBV?$Matrix@M$0?0$00$0A@$02$00@3@@3@$$CBV?$Map@V?$Matrix@M$0?0$00$0A@$02$00@Eigen@@$0A@V?$Stride@$0A@$0A@@2@@3@@Eigen@@V?$Transpose@$$CBV?$Block@$$CBV?$Matrix@M$02$01$0A@$02$01@Eigen@@$0?0$00$0A@@Eigen@@@2@$0A@@1@AEBV?$MatrixBase@V?$Transpose@$$CBV?$Block@$$CBV?$Matrix@M$02$01$0A@$02$01@Eigen@@$0?0$00$0A@@Eigen@@@Eigen@@@1@@Z
	??$FromTwoVectors@V?$Block@$$CBV?$CwiseNullaryOp@U?$scalar_identity_op@M@internal@Eigen@@V?$Matrix@M$02$02$0A@$02$02@3@@Eigen@@$02$00$0A@@Eigen@@V?$Matrix@M$02$00$0A@$02$00@2@@?$Quaternion@M$0A@@Eigen@@SA?AV01@AEBV?$MatrixBase@V?$Block@$$CBV?$CwiseNullaryOp@U?$scalar_identity_op@M@internal@Eigen@@V?$Matrix@M$02$02$0A@$02$02@3@@Eigen@@$02$00$0A@@Eigen@@@1@AEBV?$MatrixBase@V?$Matrix@M$02$00$0A@$02$00@Eigen@@@1@@Z
	??$NullaryExpr@U?$scalar_constant_op@M@internal@Eigen@@@?$DenseBase@V?$Block@V?$Block@V?$Block@V?$Matrix@M$02$01$0A@$02$01@Eigen@@$02$00$00@Eigen@@$0?0$00$0A@@Eigen@@$0?0$00$0A@@Eigen@@@Eigen@@SA?BV?$CwiseNullaryOp@U?$scalar_constant_op@M@internal@Eigen@@V?$Matrix@M$0?0$00$0A@$02$00@3@@1@_J0AEBU?$scalar_constant_op@M@internal@1@@Z
	??$NullaryExpr@U?$scalar_constant_op@M@internal@Eigen@@@?$DenseBase@V?$Block@V?$Block@V?$Matrix@M$02$02$0A@$02$02@Eigen@@$02$00$00@Eigen@@$0?0$00$0A@@Eigen@@@Eigen@@SA?BV?$CwiseNullaryOp@U?$scalar_constant_op@M@internal@Eigen@@V?$Matrix@M$0?0$00$0A@$02$00@3@@1@_J0AEBU?$scalar_constant_op@M@internal@1@@Z
	??$NullaryExpr@U?$scalar_constant_op@M@internal@Eigen@@@?$DenseBase@V?$Block@V?$Block@V?$Matrix@M$0?0$0?0$00$0?0$0?0@Eigen@@$00$0?0$00@Eigen@@$00$0?0$0A@@Eigen@@@Eigen@@SA?BV?$CwiseNullaryOp@U?$scalar_constant_op@M@internal@Eigen@@V?$Matrix@M$00$0?0$00$00$0?0@3@@1@_J0AEBU?$scalar_constant_op@M@internal@1@@Z
	??$NullaryExpr@U?$scalar_constant_op@M@internal@Eigen@@@?$DenseBase@V?$Diagonal@V?$Matrix@M$02$02$0A@$02$02@Eigen@@$0A@@Eigen@@@Eigen@@SA?BV?$CwiseNullaryOp@U?$scalar_constant_op@M@internal@Eigen@@V?$Matrix@M$02$00$0A@$02$00@3@@1@_J0AEBU?$scalar_constant_op@M@internal@1@@Z
	??$NullaryExpr@U?$scalar_constant_op@M@internal@Eigen@@@?$DenseBase@V?$Diagonal@V?$Matrix@M$0BA@$0BA@$00$0BA@$0BA@@Eigen@@$0A@@Eigen@@@Eigen@@SA?BV?$CwiseNullaryOp@U?$scalar_constant_op@M@internal@Eigen@@V?$Matrix@M$0BA@$00$0A@$0BA@$00@3@@1@_J0AEBU?$scalar_constant_op@M@internal@1@@Z
	??$NullaryExpr@U?$scalar_constant_op@M@internal@Eigen@@@?$DenseBase@V?$Diagonal@V?$Matrix@M$0BA@$0BA@$0A@$0BA@$0BA@@Eigen@@$0A@@Eigen@@@Eigen@@SA?BV?$CwiseNullaryOp@U?$scalar_constant_op@M@internal@Eigen@@V?$Matrix@M$0BA@$00$0A@$0BA@$00@3@@1@_J0AEBU?$scalar_constant_op@M@internal@1@@Z
	??$NullaryExpr@U?$scalar_constant_op@M@internal@Eigen@@@?$DenseBase@V?$Matrix@M$01$00$0A@$01$00@Eigen@@@Eigen@@SA?BV?$CwiseNullaryOp@U?$scalar_constant_op@M@internal@Eigen@@V?$Matrix@M$01$00$0A@$01$00@3@@1@_J0AEBU?$scalar_constant_op@M@internal@1@@Z
	??$NullaryExpr@U?$scalar_constant_op@M@internal@Eigen@@@?$DenseBase@V?$Matrix@M$01$01$0A@$01$01@Eigen@@@Eigen@@SA?BV?$CwiseNullaryOp@U?$scalar_constant_op@M@internal@Eigen@@V?$Matrix@M$01$01$0A@$01$01@3@@1@_J0AEBU?$scalar_constant_op@M@internal@1@@Z
	??$NullaryExpr@U?$scalar_constant_op@M@internal@Eigen@@@?$DenseBase@V?$Matrix@M$02$00$0A@$02$00@Eigen@@@Eigen@@SA?BV?$CwiseNullaryOp@U?$scalar_constant_op@M@internal@Eigen@@V?$Matrix@M$02$00$0A@$02$00@3@@1@_J0AEBU?$scalar_constant_op@M@internal@1@@Z
	??$NullaryExpr@U?$scalar_constant_op@M@internal@Eigen@@@?$DenseBase@V?$Matrix@M$02$02$0A@$02$02@Eigen@@@Eigen@@SA?BV?$CwiseNullaryOp@U?$scalar_constant_op@M@internal@Eigen@@V?$Matrix@M$02$02$0A@$02$02@3@@1@_J0AEBU?$scalar_constant_op@M@internal@1@@Z
	??$NullaryExpr@U?$scalar_constant_op@M@internal@Eigen@@@?$DenseBase@V?$Matrix@M$0?0$0?0$0A@$01$02@Eigen@@@Eigen@@SA?BV?$CwiseNullaryOp@U?$scalar_constant_op@M@internal@Eigen@@V?$Matrix@M$0?0$0?0$0A@$01$02@3@@1@_J0AEBU?$scalar_constant_op@M@internal@1@@Z
	??$NullaryExpr@U?$scalar_constant_op@M@internal@Eigen@@@?$DenseBase@V?$Matrix@M$0?0$0?0$0A@$02$01@Eigen@@@Eigen@@SA?BV?$CwiseNullaryOp@U?$scalar_constant_op@M@internal@Eigen@@V?$Matrix@M$0?0$0?0$0A@$02$01@3@@1@_J0AEBU?$scalar_constant_op@M@internal@1@@Z
	??$NullaryExpr@U?$scalar_constant_op@M@internal@Eigen@@@?$DenseBase@V?$Matrix@M$0?0$0?0$0A@$02$02@Eigen@@@Eigen@@SA?BV?$CwiseNullaryOp@U?$scalar_constant_op@M@internal@Eigen@@V?$Matrix@M$0?0$0?0$0A@$02$02@3@@1@_J0AEBU?$scalar_constant_op@M@internal@1@@Z
	??$NullaryExpr@U?$scalar_constant_op@M@internal@Eigen@@@?$DenseBase@V?$Matrix@M$0?0$0?0$0A@$0?0$02@Eigen@@@Eigen@@SA?BV?$CwiseNullaryOp@U?$scalar_constant_op@M@internal@Eigen@@V?$Matrix@M$0?0$0?0$0A@$0?0$02@3@@1@_J0AEBU?$scalar_constant_op@M@internal@1@@Z
	??$NullaryExpr@U?$scalar_constant_op@M@internal@Eigen@@@?$DenseBase@V?$Matrix@M$0BA@$0BA@$00$0BA@$0BA@@Eigen@@@Eigen@@SA?BV?$CwiseNullaryOp@U?$scalar_constant_op@M@internal@Eigen@@V?$Matrix@M$0BA@$0BA@$00$0BA@$0BA@@3@@1@_J0AEBU?$scalar_constant_op@M@internal@1@@Z
	??$NullaryExpr@U?$scalar_constant_op@M@internal@Eigen@@@?$DenseBase@V?$Matrix@M$0BA@$0BA@$0A@$0BA@$0BA@@Eigen@@@Eigen@@SA?BV?$CwiseNullaryOp@U?$scalar_constant_op@M@internal@Eigen@@V?$Matrix@M$0BA@$0BA@$0A@$0BA@$0BA@@3@@1@_J0AEBU?$scalar_constant_op@M@internal@1@@Z
	??$NullaryExpr@U?$scalar_identity_op@M@internal@Eigen@@@?$DenseBase@V?$Matrix@M$01$01$0A@$01$01@Eigen@@@Eigen@@SA?BV?$CwiseNullaryOp@U?$scalar_identity_op@M@internal@Eigen@@V?$Matrix@M$01$01$0A@$01$01@3@@1@_J0AEBU?$scalar_identity_op@M@internal@1@@Z
	??$NullaryExpr@U?$scalar_identity_op@M@internal@Eigen@@@?$DenseBase@V?$Matrix@M$02$02$0A@$02$02@Eigen@@@Eigen@@SA?BV?$CwiseNullaryOp@U?$scalar_identity_op@M@internal@Eigen@@V?$Matrix@M$02$02$0A@$02$02@3@@1@_J0AEBU?$scalar_identity_op@M@internal@1@@Z
	??$_Allocate_manually_vector_aligned@U_Default_allocate_traits@std@@@std@@YAPEAX_K@Z
	??$_Construct@$00PEBD@?$basic_string@DU?$char_traits@D@std@@V?$allocator@D@2@@std@@AEAAXQEBD_K@Z
	??$_Copy_memmove@PEAMPEAM@std@@YAPEAMPEAM00@Z
	??$_Fill_zero_memset@PEAM@std@@YAXPEAM_K@Z
	??$_Getvals@_W@?$time_get@DV?$istreambuf_iterator@DU?$char_traits@D@std@@@std@@@std@@IEAAX_WAEBV_Locinfo@1@@Z
	??$_Getvals@_W@?$time_get@_WV?$istreambuf_iterator@_WU?$char_traits@_W@std@@@std@@@std@@IEAAX_WAEBV_Locinfo@1@@Z
	??$_Insert_string@DU?$char_traits@D@std@@_K@std@@YAAEAV?$basic_ostream@DU?$char_traits@D@std@@@0@AEAV10@QEBD_K@Z
	??$_Is_all_bits_zero@M@std@@YA_NAEBM@Z
	??$_Maklocstr@D@std@@YAPEADPEBDPEADAEBU_Cvtvec@@@Z
	??$_Reallocate_grow_by@V<lambda_319d5e083f45f90dcdce5dce53cbb275>@@D@?$basic_string@DU?$char_traits@D@std@@V?$allocator@D@2@@std@@AEAAAEAV01@_KV<lambda_319d5e083f45f90dcdce5dce53cbb275>@@D@Z
	??$_Reallocate_grow_by@V<lambda_65e615be2a453ca0576c979606f46740>@@PEBD_K@?$basic_string@DU?$char_traits@D@std@@V?$allocator@D@2@@std@@AEAAAEAV01@_KV<lambda_65e615be2a453ca0576c979606f46740>@@PEBD_K@Z
	??$applyHouseholderOnTheLeft@V?$Block@$$CBV?$Matrix@M$02$01$0A@$02$01@Eigen@@$0?0$00$0A@@Eigen@@@?$MatrixBase@V?$Block@V?$Matrix@M$02$02$0A@$02$02@Eigen@@$0?0$0?0$0A@@Eigen@@@Eigen@@QEAAXAEBV?$Block@$$CBV?$Matrix@M$02$01$0A@$02$01@Eigen@@$0?0$00$0A@@1@AEBMPEAM@Z
	??$applyHouseholderOnTheLeft@V?$VectorBlock@V?$Block@V?$Matrix@M$02$01$0A@$02$01@Eigen@@$02$00$00@Eigen@@$0?0@Eigen@@@?$MatrixBase@V?$Block@V?$Matrix@M$02$01$0A@$02$01@Eigen@@$0?0$0?0$0A@@Eigen@@@Eigen@@QEAAXAEBV?$VectorBlock@V?$Block@V?$Matrix@M$02$01$0A@$02$01@Eigen@@$02$00$00@Eigen@@$0?0@1@AEBMPEAM@Z
	??$applyHouseholderOnTheRight@V?$Block@$$CBV?$Matrix@M$02$01$0A@$02$01@Eigen@@$0?0$00$0A@@Eigen@@@?$MatrixBase@V?$Block@V?$Matrix@M$02$02$0A@$02$02@Eigen@@$0?0$0?0$0A@@Eigen@@@Eigen@@QEAAXAEBV?$Block@$$CBV?$Matrix@M$02$01$0A@$02$01@Eigen@@$0?0$00$0A@@1@AEBMPEAM@Z
	??$applyOnTheLeft@M@?$MatrixBase@V?$Matrix@M$01$01$0A@$01$01@Eigen@@@Eigen@@QEAAX_J0AEBV?$JacobiRotation@M@1@@Z
	??$applyOnTheRight@M@?$MatrixBase@V?$Matrix@M$01$01$0A@$01$01@Eigen@@@Eigen@@QEAAX_J0AEBV?$JacobiRotation@M@1@@Z
	??$applyOnTheRight@M@?$MatrixBase@V?$Matrix@M$02$02$0A@$02$02@Eigen@@@Eigen@@QEAAX_J0AEBV?$JacobiRotation@M@1@@Z
	??$applyThisOnTheLeft@V?$Matrix@M$02$02$0A@$02$02@Eigen@@V?$Matrix@M$00$02$00$00$02@2@@?$HouseholderSequence@V?$Matrix@M$02$01$0A@$02$01@Eigen@@V?$Matrix@M$01$00$0A@$01$00@2@$00@Eigen@@QEBAXAEAV?$Matrix@M$02$02$0A@$02$02@1@AEAV?$Matrix@M$00$02$00$00$02@1@_N@Z
	??$apply_block_householder_on_the_left@V?$Block@V?$Matrix@M$02$02$0A@$02$02@Eigen@@$0?0$0?0$0A@@Eigen@@V?$Block@V?$Matrix@M$02$01$0A@$02$01@Eigen@@$0?0$0?0$0A@@2@V?$VectorBlock@$$CBV?$Matrix@M$01$00$0A@$01$00@Eigen@@$0?0@2@@internal@Eigen@@YAXAEAV?$Block@V?$Matrix@M$02$02$0A@$02$02@Eigen@@$0?0$0?0$0A@@1@AEBV?$Block@V?$Matrix@M$02$01$0A@$02$01@Eigen@@$0?0$0?0$0A@@1@AEBV?$VectorBlock@$$CBV?$Matrix@M$01$00$0A@$01$00@Eigen@@$0?0@1@_N@Z
	??$apply_rotation_in_the_plane@V?$Block@V?$Matrix@M$01$01$0A@$01$01@Eigen@@$00$01$0A@@Eigen@@V12@M@internal@Eigen@@YAXAEAV?$DenseBase@V?$Block@V?$Matrix@M$01$01$0A@$01$01@Eigen@@$00$01$0A@@Eigen@@@1@0AEBV?$JacobiRotation@M@1@@Z
	??$apply_rotation_in_the_plane@V?$Block@V?$Matrix@M$01$01$0A@$01$01@Eigen@@$01$00$00@Eigen@@V12@M@internal@Eigen@@YAXAEAV?$DenseBase@V?$Block@V?$Matrix@M$01$01$0A@$01$01@Eigen@@$01$00$00@Eigen@@@1@0AEBV?$JacobiRotation@M@1@@Z
	??$apply_rotation_in_the_plane@V?$Block@V?$Matrix@M$02$02$0A@$02$02@Eigen@@$02$00$00@Eigen@@V12@M@internal@Eigen@@YAXAEAV?$DenseBase@V?$Block@V?$Matrix@M$02$02$0A@$02$02@Eigen@@$02$00$00@Eigen@@@1@0AEBV?$JacobiRotation@M@1@@Z
	??$check_static_allocation_size@H$01@internal@Eigen@@YAXXZ
	??$check_static_allocation_size@M$01@internal@Eigen@@YAXXZ
	??$check_static_allocation_size@M$02@internal@Eigen@@YAXXZ
	??$check_static_allocation_size@M$03@internal@Eigen@@YAXXZ
	??$check_static_allocation_size@M$05@internal@Eigen@@YAXXZ
	??$check_static_allocation_size@M$08@internal@Eigen@@YAXXZ
	??$check_static_allocation_size@M$0BAA@@internal@Eigen@@YAXXZ
	??$check_static_allocation_size@_J$01@internal@Eigen@@YAXXZ
	??$compute@V?$Matrix@M$02$01$0A@$02$01@Eigen@@@?$ColPivHouseholderQR@V?$Matrix@M$02$01$0A@$02$01@Eigen@@@Eigen@@QEAAAEAV01@AEBU?$EigenBase@V?$Matrix@M$02$01$0A@$02$01@Eigen@@@1@@Z
	??$computeProductBlockingSizes@MM$03_J@internal@Eigen@@YAXAEA_J00_J@Z
	??$conditional_aligned_new_auto@M$00@internal@Eigen@@YAPEAM_K@Z
	??$div_ceil@_J@numext@Eigen@@YA_JAEB_J0@Z
	??$dot@V?$Matrix@M$02$00$0A@$02$00@Eigen@@@?$MatrixBase@V?$Matrix@M$02$00$0A@$02$00@Eigen@@@Eigen@@QEBAMAEBV01@@Z
	??$endl@DU?$char_traits@D@std@@@std@@YAAEAV?$basic_ostream@DU?$char_traits@D@std@@@0@AEAV10@@Z
	??$evalTo@V?$Matrix@M$02$02$0A@$02$02@Eigen@@V?$Matrix@M$00$02$00$00$02@2@@?$HouseholderSequence@V?$Matrix@M$02$01$0A@$02$01@Eigen@@V?$Matrix@M$01$00$0A@$01$00@2@$00@Eigen@@QEBAXAEAV?$Matrix@M$02$02$0A@$02$02@1@AEAV?$Matrix@M$00$02$00$00$02@1@@Z
	??$evaluateProductBlockingSizesHeuristic@MM$03_J@internal@Eigen@@YAXAEA_J00_J@Z
	??$fill_n@PEAM_JM@std@@YAPEAMPEAM_JAEBM@Z
	??$get_runtime_value@_J@internal@Eigen@@YA_JAEB_J@Z
	??$is_same_dense@V?$Matrix@M$02$02$0A@$02$02@Eigen@@V?$Matrix@M$02$01$0A@$02$01@2@@internal@Eigen@@YA_NAEBV?$Matrix@M$02$02$0A@$02$02@1@AEBV?$Matrix@M$02$01$0A@$02$01@1@PEAX@Z
	??$isfinite@M@numext@Eigen@@YA_NAEBM@Z
	??$isfinite_impl@M@internal@Eigen@@YA_NAEBM@Z
	??$lazyProduct@V?$Block@$$CBV?$Matrix@M$02$01$0A@$02$01@Eigen@@$0?0$00$0A@@Eigen@@@?$MatrixBase@V?$Block@V?$Block@V?$Matrix@M$02$02$0A@$02$02@Eigen@@$0?0$0?0$0A@@Eigen@@$0?0$0?0$0A@@Eigen@@@Eigen@@QEBA?BV?$Product@V?$Block@V?$Block@V?$Matrix@M$02$02$0A@$02$02@Eigen@@$0?0$0?0$0A@@Eigen@@$0?0$0?0$0A@@Eigen@@V?$Block@$$CBV?$Matrix@M$02$01$0A@$02$01@Eigen@@$0?0$00$0A@@2@$00@1@AEBV?$MatrixBase@V?$Block@$$CBV?$Matrix@M$02$01$0A@$02$01@Eigen@@$0?0$00$0A@@Eigen@@@1@@Z
	??$lazyProduct@V?$Block@V?$Block@V?$Matrix@M$02$01$0A@$02$01@Eigen@@$0?0$0?0$0A@@Eigen@@$0?0$0?0$0A@@Eigen@@@?$MatrixBase@V?$Transpose@$$CBV?$Block@V?$Block@V?$Matrix@M$02$01$0A@$02$01@Eigen@@$02$00$00@Eigen@@$0?0$00$0A@@Eigen@@@Eigen@@@Eigen@@QEBA?BV?$Product@V?$Transpose@$$CBV?$Block@V?$Block@V?$Matrix@M$02$01$0A@$02$01@Eigen@@$02$00$00@Eigen@@$0?0$00$0A@@Eigen@@@Eigen@@V?$Block@V?$Block@V?$Matrix@M$02$01$0A@$02$01@Eigen@@$0?0$0?0$0A@@Eigen@@$0?0$0?0$0A@@2@$00@1@AEBV?$MatrixBase@V?$Block@V?$Block@V?$Matrix@M$02$01$0A@$02$01@Eigen@@$0?0$0?0$0A@@Eigen@@$0?0$0?0$0A@@Eigen@@@1@@Z
	??$lazyProduct@V?$Block@V?$Block@V?$Matrix@M$02$02$0A@$02$02@Eigen@@$0?0$0?0$0A@@Eigen@@$0?0$0?0$0A@@Eigen@@@?$MatrixBase@V?$Transpose@$$CBV?$Block@$$CBV?$Matrix@M$02$01$0A@$02$01@Eigen@@$0?0$00$0A@@Eigen@@@Eigen@@@Eigen@@QEBA?BV?$Product@V?$Transpose@$$CBV?$Block@$$CBV?$Matrix@M$02$01$0A@$02$01@Eigen@@$0?0$00$0A@@Eigen@@@Eigen@@V?$Block@V?$Block@V?$Matrix@M$02$02$0A@$02$02@Eigen@@$0?0$0?0$0A@@Eigen@@$0?0$0?0$0A@@2@$00@1@AEBV?$MatrixBase@V?$Block@V?$Block@V?$Matrix@M$02$02$0A@$02$02@Eigen@@$0?0$0?0$0A@@Eigen@@$0?0$0?0$0A@@Eigen@@@1@@Z
	??$lazyProduct@V?$Map@V?$Matrix@M$00$0?0$00$00$01@Eigen@@$0A@V?$Stride@$0A@$0A@@2@@Eigen@@@?$MatrixBase@V?$CwiseBinaryOp@U?$scalar_product_op@MM@internal@Eigen@@$$CBV?$CwiseNullaryOp@U?$scalar_constant_op@M@internal@Eigen@@$$CBV?$Matrix@M$0?0$00$0A@$02$00@3@@3@$$CBV?$Block@V?$Block@V?$Matrix@M$02$01$0A@$02$01@Eigen@@$02$00$00@Eigen@@$0?0$00$0A@@3@@Eigen@@@Eigen@@QEBA?BV?$Product@V?$CwiseBinaryOp@U?$scalar_product_op@MM@internal@Eigen@@$$CBV?$CwiseNullaryOp@U?$scalar_constant_op@M@internal@Eigen@@$$CBV?$Matrix@M$0?0$00$0A@$02$00@3@@3@$$CBV?$Block@V?$Block@V?$Matrix@M$02$01$0A@$02$01@Eigen@@$02$00$00@Eigen@@$0?0$00$0A@@3@@Eigen@@V?$Map@V?$Matrix@M$00$0?0$00$00$01@Eigen@@$0A@V?$Stride@$0A@$0A@@2@@2@$00@1@AEBV?$MatrixBase@V?$Map@V?$Matrix@M$00$0?0$00$00$01@Eigen@@$0A@V?$Stride@$0A@$0A@@2@@Eigen@@@1@@Z
	??$lazyProduct@V?$Map@V?$Matrix@M$00$0?0$00$00$02@Eigen@@$0A@V?$Stride@$0A@$0A@@2@@Eigen@@@?$MatrixBase@V?$CwiseBinaryOp@U?$scalar_product_op@MM@internal@Eigen@@$$CBV?$CwiseNullaryOp@U?$scalar_constant_op@M@internal@Eigen@@$$CBV?$Matrix@M$0?0$00$0A@$02$00@3@@3@$$CBV?$Block@$$CBV?$Matrix@M$02$01$0A@$02$01@Eigen@@$0?0$00$0A@@3@@Eigen@@@Eigen@@QEBA?BV?$Product@V?$CwiseBinaryOp@U?$scalar_product_op@MM@internal@Eigen@@$$CBV?$CwiseNullaryOp@U?$scalar_constant_op@M@internal@Eigen@@$$CBV?$Matrix@M$0?0$00$0A@$02$00@3@@3@$$CBV?$Block@$$CBV?$Matrix@M$02$01$0A@$02$01@Eigen@@$0?0$00$0A@@3@@Eigen@@V?$Map@V?$Matrix@M$00$0?0$00$00$02@Eigen@@$0A@V?$Stride@$0A@$0A@@2@@2@$00@1@AEBV?$MatrixBase@V?$Map@V?$Matrix@M$00$0?0$00$00$02@Eigen@@$0A@V?$Stride@$0A@$0A@@2@@Eigen@@@1@@Z
	??$lazyProduct@V?$Transpose@$$CBV?$Block@$$CBV?$Matrix@M$02$01$0A@$02$01@Eigen@@$0?0$00$0A@@Eigen@@@Eigen@@@?$MatrixBase@V?$CwiseBinaryOp@U?$scalar_product_op@MM@internal@Eigen@@$$CBV?$CwiseNullaryOp@U?$scalar_constant_op@M@internal@Eigen@@$$CBV?$Matrix@M$0?0$00$0A@$02$00@3@@3@$$CBV?$Map@V?$Matrix@M$0?0$00$0A@$02$00@Eigen@@$0A@V?$Stride@$0A@$0A@@2@@3@@Eigen@@@Eigen@@QEBA?BV?$Product@V?$CwiseBinaryOp@U?$scalar_product_op@MM@internal@Eigen@@$$CBV?$CwiseNullaryOp@U?$scalar_constant_op@M@internal@Eigen@@$$CBV?$Matrix@M$0?0$00$0A@$02$00@3@@3@$$CBV?$Map@V?$Matrix@M$0?0$00$0A@$02$00@Eigen@@$0A@V?$Stride@$0A@$0A@@2@@3@@Eigen@@V?$Transpose@$$CBV?$Block@$$CBV?$Matrix@M$02$01$0A@$02$01@Eigen@@$0?0$00$0A@@Eigen@@@2@$00@1@AEBV?$MatrixBase@V?$Transpose@$$CBV?$Block@$$CBV?$Matrix@M$02$01$0A@$02$01@Eigen@@$0?0$00$0A@@Eigen@@@Eigen@@@1@@Z
	??$makeHouseholder@V?$VectorBlock@V?$Block@V?$Block@V?$Matrix@M$02$01$0A@$02$01@Eigen@@$02$00$00@Eigen@@$0?0$00$0A@@Eigen@@$0?0@Eigen@@@?$MatrixBase@V?$Block@V?$Block@V?$Matrix@M$02$01$0A@$02$01@Eigen@@$02$00$00@Eigen@@$0?0$00$0A@@Eigen@@@Eigen@@QEBAXAEAV?$VectorBlock@V?$Block@V?$Block@V?$Matrix@M$02$01$0A@$02$01@Eigen@@$02$00$00@Eigen@@$0?0$00$0A@@Eigen@@$0?0@1@AEAM1@Z
	??$makeJacobi@V?$Matrix@M$01$01$0A@$01$01@Eigen@@@?$JacobiRotation@M@Eigen@@QEAA_NAEBV?$MatrixBase@V?$Matrix@M$01$01$0A@$01$01@Eigen@@@1@_J1@Z
	??$make_block_householder_triangular_factor@V?$Matrix@M$0?0$0?0$00$0?0$0?0@Eigen@@V?$Block@V?$Matrix@M$02$01$0A@$02$01@Eigen@@$0?0$0?0$0A@@2@V?$Block@$$CBV?$Matrix@M$01$00$0A@$01$00@Eigen@@$0?0$00$0A@@2@@internal@Eigen@@YAXAEAV?$Matrix@M$0?0$0?0$00$0?0$0?0@1@AEBV?$Block@V?$Matrix@M$02$01$0A@$02$01@Eigen@@$0?0$0?0$0A@@1@AEBV?$Block@$$CBV?$Matrix@M$01$00$0A@$01$00@Eigen@@$0?0$00$0A@@1@@Z
	??$make_block_householder_triangular_factor@V?$Matrix@M$0?0$0?0$00$0?0$0?0@Eigen@@V?$Block@V?$Matrix@M$02$01$0A@$02$01@Eigen@@$0?0$0?0$0A@@2@V?$VectorBlock@$$CBV?$Matrix@M$01$00$0A@$01$00@Eigen@@$0?0@2@@internal@Eigen@@YAXAEAV?$Matrix@M$0?0$0?0$00$0?0$0?0@1@AEBV?$Block@V?$Matrix@M$02$01$0A@$02$01@Eigen@@$0?0$0?0$0A@@1@AEBV?$VectorBlock@$$CBV?$Matrix@M$01$00$0A@$01$00@Eigen@@$0?0@1@@Z
	??$maxCoeff@$00@?$DenseBase@V?$CwiseUnaryOp@U?$scalar_abs_op@M@internal@Eigen@@$$CBV?$Matrix@M$01$02$0A@$01$02@3@@Eigen@@@Eigen@@QEBAMXZ
	??$maxCoeff@$0A@@?$DenseBase@V?$Diagonal@$$CBV?$CwiseUnaryOp@U?$scalar_abs_op@M@internal@Eigen@@$$CBV?$Matrix@M$01$01$0A@$01$01@3@@Eigen@@$0A@@Eigen@@@Eigen@@QEBAMXZ
	??$maxCoeff@$0A@@?$DenseBase@V?$Matrix@M$00$01$00$00$01@Eigen@@@Eigen@@QEBAMXZ
	??$maxCoeff@$0A@_J@?$DenseBase@V?$Block@V?$Matrix@M$00$01$00$00$01@Eigen@@$00$0?0$0A@@Eigen@@@Eigen@@QEBAMPEA_J@Z
	??$maxCoeff@$0A@_J@?$DenseBase@V?$Block@V?$Matrix@M$01$00$0A@$01$00@Eigen@@$0?0$00$0A@@Eigen@@@Eigen@@QEBAMPEA_J@Z
	??$packetwise_redux_empty_value@T__m128@@U?$scalar_max_op@MM$0A@@internal@Eigen@@@internal@Eigen@@YA?AT__m128@@AEBU?$scalar_max_op@MM$0A@@01@@Z
	??$packetwise_redux_empty_value@T__m128@@U?$scalar_sum_op@MM@internal@Eigen@@@internal@Eigen@@YA?AT__m128@@AEBU?$scalar_sum_op@MM@01@@Z
	??$pmax@$00M@internal@Eigen@@YAMAEBM0@Z
	??$pmax@$0A@M@internal@Eigen@@YAMAEBM0@Z
	??$pmax@M@internal@Eigen@@YAMAEBM0@Z
	??$predux_max@$00T__m128@@@internal@Eigen@@YAMAEBT__m128@@@Z
	??$put_time@D@std@@YA?AU?$_Timeobj@DPEBUtm@@@0@PEBUtm@@PEBD@Z
	??$real_2x2_jacobi_svd@V?$Matrix@M$01$01$0A@$01$01@Eigen@@M_J@internal@Eigen@@YAXAEBV?$Matrix@M$01$01$0A@$01$01@1@_J1PEAV?$JacobiRotation@M@1@2@Z
	??$redux@U?$scalar_max_op@MM$00@internal@Eigen@@@?$DenseBase@V?$CwiseUnaryOp@U?$scalar_abs_op@M@internal@Eigen@@$$CBV?$Matrix@M$01$02$0A@$01$02@3@@Eigen@@@Eigen@@QEBAMAEBU?$scalar_max_op@MM$00@internal@1@@Z
	??$redux@U?$scalar_max_op@MM$0A@@internal@Eigen@@@?$DenseBase@V?$Diagonal@$$CBV?$CwiseUnaryOp@U?$scalar_abs_op@M@internal@Eigen@@$$CBV?$Matrix@M$01$01$0A@$01$01@3@@Eigen@@$0A@@Eigen@@@Eigen@@QEBAMAEBU?$scalar_max_op@MM$0A@@internal@1@@Z
	??$redux@U?$scalar_max_op@MM$0A@@internal@Eigen@@@?$DenseBase@V?$Matrix@M$00$01$00$00$01@Eigen@@@Eigen@@QEBAMAEBU?$scalar_max_op@MM$0A@@internal@1@@Z
	??$redux@U?$scalar_sum_op@MM@internal@Eigen@@@?$DenseBase@V?$CwiseBinaryOp@U?$scalar_conj_product_op@MM@internal@Eigen@@$$CBV?$Matrix@M$02$00$0A@$02$00@3@$$CBV43@@Eigen@@@Eigen@@QEBAMAEBU?$scalar_sum_op@MM@internal@1@@Z
	??$redux@U?$scalar_sum_op@MM@internal@Eigen@@@?$DenseBase@V?$CwiseBinaryOp@U?$scalar_product_op@MM@internal@Eigen@@$$CBV?$Block@$$CBV?$Block@$$CBV?$Map@$$CBV?$Matrix@M$0?0$0?0$00$0?0$0?0@Eigen@@$0A@V?$OuterStride@$0?0@2@@Eigen@@$00$0?0$00@Eigen@@$00$0?0$0A@@3@$$CBV?$Transpose@$$CBV?$Block@$$CBV?$Map@$$CBV?$Matrix@M$0?0$00$0A@$0?0$00@Eigen@@$0A@V?$Stride@$0A@$0A@@2@@Eigen@@$0?0$00$0A@@Eigen@@@3@@Eigen@@@Eigen@@QEBAMAEBU?$scalar_sum_op@MM@internal@1@@Z
	??$redux@U?$scalar_sum_op@MM@internal@Eigen@@@?$DenseBase@V?$CwiseBinaryOp@U?$scalar_product_op@MM@internal@Eigen@@$$CBV?$Transpose@$$CBV?$Block@$$CBV?$Block@V?$Block@V?$Matrix@M$02$02$0A@$02$02@Eigen@@$0?0$0?0$0A@@Eigen@@$0?0$0?0$0A@@Eigen@@$00$0?0$0A@@Eigen@@@3@$$CBV?$Block@$$CBV?$Block@$$CBV?$Matrix@M$02$01$0A@$02$01@Eigen@@$0?0$00$0A@@Eigen@@$0?0$00$00@3@@Eigen@@@Eigen@@QEBAMAEBU?$scalar_sum_op@MM@internal@1@@Z
	??$redux@U?$scalar_sum_op@MM@internal@Eigen@@@?$DenseBase@V?$CwiseBinaryOp@U?$scalar_product_op@MM@internal@Eigen@@$$CBV?$Transpose@$$CBV?$Block@$$CBV?$Matrix@M$0?0$00$0A@$02$00@Eigen@@$00$00$0A@@Eigen@@@3@$$CBV?$Block@$$CBV?$Map@V?$Matrix@M$00$0?0$00$00$01@Eigen@@$0A@V?$Stride@$0A@$0A@@2@@Eigen@@$00$00$0A@@3@@Eigen@@@Eigen@@QEBAMAEBU?$scalar_sum_op@MM@internal@1@@Z
	??$redux@U?$scalar_sum_op@MM@internal@Eigen@@@?$DenseBase@V?$CwiseBinaryOp@U?$scalar_product_op@MM@internal@Eigen@@$$CBV?$Transpose@$$CBV?$Block@$$CBV?$Matrix@M$0?0$00$0A@$02$00@Eigen@@$00$00$0A@@Eigen@@@3@$$CBV?$Block@$$CBV?$Map@V?$Matrix@M$00$0?0$00$00$02@Eigen@@$0A@V?$Stride@$0A@$0A@@2@@Eigen@@$00$00$0A@@3@@Eigen@@@Eigen@@QEBAMAEBU?$scalar_sum_op@MM@internal@1@@Z
	??$redux@U?$scalar_sum_op@MM@internal@Eigen@@@?$DenseBase@V?$CwiseBinaryOp@U?$scalar_product_op@MM@internal@Eigen@@$$CBV?$Transpose@$$CBV?$Block@$$CBV?$Matrix@M$0?0$00$0A@$02$00@Eigen@@$00$00$0A@@Eigen@@@3@$$CBV?$Block@$$CBV?$Transpose@$$CBV?$Block@$$CBV?$Matrix@M$02$01$0A@$02$01@Eigen@@$0?0$00$0A@@Eigen@@@Eigen@@$00$00$0A@@3@@Eigen@@@Eigen@@QEBAMAEBU?$scalar_sum_op@MM@internal@1@@Z
	??$redux@U?$scalar_sum_op@MM@internal@Eigen@@@?$DenseBase@V?$CwiseBinaryOp@U?$scalar_product_op@MM@internal@Eigen@@$$CBV?$Transpose@$$CBV?$Block@$$CBV?$Transpose@$$CBV?$Block@$$CBV?$Matrix@M$02$01$0A@$02$01@Eigen@@$0?0$00$0A@@Eigen@@@Eigen@@$00$0?0$00@Eigen@@@3@$$CBV?$Block@$$CBV?$Block@V?$Block@V?$Matrix@M$02$02$0A@$02$02@Eigen@@$0?0$0?0$0A@@Eigen@@$0?0$0?0$0A@@Eigen@@$0?0$00$00@3@@Eigen@@@Eigen@@QEBAMAEBU?$scalar_sum_op@MM@internal@1@@Z
	??$redux@U?$scalar_sum_op@MM@internal@Eigen@@@?$DenseBase@V?$CwiseBinaryOp@U?$scalar_product_op@MM@internal@Eigen@@$$CBV?$Transpose@$$CBV?$Block@$$CBV?$Transpose@$$CBV?$Block@V?$Block@V?$Matrix@M$02$01$0A@$02$01@Eigen@@$02$00$00@Eigen@@$0?0$00$0A@@Eigen@@@Eigen@@$00$0?0$00@Eigen@@@3@$$CBV?$Block@$$CBV?$Block@V?$Block@V?$Matrix@M$02$01$0A@$02$01@Eigen@@$0?0$0?0$0A@@Eigen@@$0?0$0?0$0A@@Eigen@@$0?0$00$00@3@@Eigen@@@Eigen@@QEBAMAEBU?$scalar_sum_op@MM@internal@1@@Z
	??$redux@U?$scalar_sum_op@MM@internal@Eigen@@@?$DenseBase@V?$CwiseUnaryOp@U?$scalar_abs2_op@M@internal@Eigen@@$$CBV?$Block@$$CBV?$Block@V?$Block@V?$Matrix@M$02$01$0A@$02$01@Eigen@@$02$00$00@Eigen@@$0?0$00$0A@@Eigen@@$0?0$00$0A@@3@@Eigen@@@Eigen@@QEBAMAEBU?$scalar_sum_op@MM@internal@1@@Z
	??$redux@U?$scalar_sum_op@MM@internal@Eigen@@@?$DenseBase@V?$CwiseUnaryOp@U?$scalar_abs2_op@M@internal@Eigen@@$$CBV?$Block@$$CBV?$CwiseNullaryOp@U?$scalar_identity_op@M@internal@Eigen@@V?$Matrix@M$02$02$0A@$02$02@3@@Eigen@@$02$00$0A@@3@@Eigen@@@Eigen@@QEBAMAEBU?$scalar_sum_op@MM@internal@1@@Z
	??$redux@U?$scalar_sum_op@MM@internal@Eigen@@@?$DenseBase@V?$CwiseUnaryOp@U?$scalar_abs2_op@M@internal@Eigen@@$$CBV?$Block@V?$Block@V?$Matrix@M$02$01$0A@$02$01@Eigen@@$02$00$00@Eigen@@$0?0$00$0A@@3@@Eigen@@@Eigen@@QEBAMAEBU?$scalar_sum_op@MM@internal@1@@Z
	??$redux@U?$scalar_sum_op@MM@internal@Eigen@@@?$DenseBase@V?$CwiseUnaryOp@U?$scalar_abs2_op@M@internal@Eigen@@$$CBV?$Block@V?$Matrix@M$02$01$0A@$02$01@Eigen@@$02$00$00@3@@Eigen@@@Eigen@@QEBAMAEBU?$scalar_sum_op@MM@internal@1@@Z
	??$redux@U?$scalar_sum_op@MM@internal@Eigen@@@?$DenseBase@V?$CwiseUnaryOp@U?$scalar_abs2_op@M@internal@Eigen@@$$CBV?$Matrix@M$02$00$0A@$02$00@3@@Eigen@@@Eigen@@QEBAMAEBU?$scalar_sum_op@MM@internal@1@@Z
	??$run@V?$Block@V?$Matrix@M$02$02$0A@$02$02@Eigen@@$0?0$0?0$0A@@Eigen@@@?$triangular_product_impl@$04$00$$CBV?$Block@V?$Matrix@M$02$01$0A@$02$01@Eigen@@$0?0$0?0$0A@@Eigen@@$0A@V?$Matrix@M$0?0$0?0$0A@$01$02@2@$0A@@internal@Eigen@@SAXAEAV?$Block@V?$Matrix@M$02$02$0A@$02$02@Eigen@@$0?0$0?0$0A@@2@AEBV?$Block@V?$Matrix@M$02$01$0A@$02$01@Eigen@@$0?0$0?0$0A@@2@AEBV?$Matrix@M$0?0$0?0$0A@$01$02@2@AEBM@Z
	??$run@V?$CwiseBinaryOp@U?$scalar_product_op@MM@internal@Eigen@@$$CBV?$Block@$$CBV?$Block@$$CBV?$Map@$$CBV?$Matrix@M$0?0$0?0$00$0?0$0?0@Eigen@@$0A@V?$OuterStride@$0?0@2@@Eigen@@$00$0?0$00@Eigen@@$00$0?0$0A@@3@$$CBV?$Transpose@$$CBV?$Block@$$CBV?$Map@$$CBV?$Matrix@M$0?0$00$0A@$0?0$00@Eigen@@$0A@V?$Stride@$0A@$0A@@2@@Eigen@@$0?0$00$0A@@Eigen@@@3@@Eigen@@@?$redux_impl@U?$scalar_sum_op@MM@internal@Eigen@@V?$redux_evaluator@V?$CwiseBinaryOp@U?$scalar_product_op@MM@internal@Eigen@@$$CBV?$Block@$$CBV?$Block@$$CBV?$Map@$$CBV?$Matrix@M$0?0$0?0$00$0?0$0?0@Eigen@@$0A@V?$OuterStride@$0?0@2@@Eigen@@$00$0?0$00@Eigen@@$00$0?0$0A@@3@$$CBV?$Transpose@$$CBV?$Block@$$CBV?$Map@$$CBV?$Matrix@M$0?0$00$0A@$0?0$00@Eigen@@$0A@V?$Stride@$0A@$0A@@2@@Eigen@@$0?0$00$0A@@Eigen@@@3@@Eigen@@@23@$02$0A@@internal@Eigen@@SAMAEBV?$redux_evaluator@V?$CwiseBinaryOp@U?$scalar_product_op@MM@internal@Eigen@@$$CBV?$Block@$$CBV?$Block@$$CBV?$Map@$$CBV?$Matrix@M$0?0$0?0$00$0?0$0?0@Eigen@@$0A@V?$OuterStride@$0?0@2@@Eigen@@$00$0?0$00@Eigen@@$00$0?0$0A@@3@$$CBV?$Transpose@$$CBV?$Block@$$CBV?$Map@$$CBV?$Matrix@M$0?0$00$0A@$0?0$00@Eigen@@$0A@V?$Stride@$0A@$0A@@2@@Eigen@@$0?0$00$0A@@Eigen@@@3@@Eigen@@@12@AEBU?$scalar_sum_op@MM@12@AEBV?$CwiseBinaryOp@U?$scalar_product_op@MM@internal@Eigen@@$$CBV?$Block@$$CBV?$Block@$$CBV?$Map@$$CBV?$Matrix@M$0?0$0?0$00$0?0$0?0@Eigen@@$0A@V?$OuterStride@$0?0@2@@Eigen@@$00$0?0$00@Eigen@@$00$0?0$0A@@3@$$CBV?$Transpose@$$CBV?$Block@$$CBV?$Map@$$CBV?$Matrix@M$0?0$00$0A@$0?0$00@Eigen@@$0A@V?$Stride@$0A@$0A@@2@@Eigen@@$0?0$00$0A@@Eigen@@@3@@2@@Z
	??$run@V?$CwiseBinaryOp@U?$scalar_product_op@MM@internal@Eigen@@$$CBV?$Transpose@$$CBV?$Block@$$CBV?$Transpose@$$CBV?$Block@$$CBV?$Matrix@M$02$01$0A@$02$01@Eigen@@$0?0$00$0A@@Eigen@@@Eigen@@$00$0?0$00@Eigen@@@3@$$CBV?$Block@$$CBV?$Block@V?$Block@V?$Matrix@M$02$02$0A@$02$02@Eigen@@$0?0$0?0$0A@@Eigen@@$0?0$0?0$0A@@Eigen@@$0?0$00$00@3@@Eigen@@@?$redux_impl@U?$scalar_sum_op@MM@internal@Eigen@@V?$redux_evaluator@V?$CwiseBinaryOp@U?$scalar_product_op@MM@internal@Eigen@@$$CBV?$Transpose@$$CBV?$Block@$$CBV?$Transpose@$$CBV?$Block@$$CBV?$Matrix@M$02$01$0A@$02$01@Eigen@@$0?0$00$0A@@Eigen@@@Eigen@@$00$0?0$00@Eigen@@@3@$$CBV?$Block@$$CBV?$Block@V?$Block@V?$Matrix@M$02$02$0A@$02$02@Eigen@@$0?0$0?0$0A@@Eigen@@$0?0$0?0$0A@@Eigen@@$0?0$00$00@3@@Eigen@@@23@$02$0A@@internal@Eigen@@SAMAEBV?$redux_evaluator@V?$CwiseBinaryOp@U?$scalar_product_op@MM@internal@Eigen@@$$CBV?$Transpose@$$CBV?$Block@$$CBV?$Transpose@$$CBV?$Block@$$CBV?$Matrix@M$02$01$0A@$02$01@Eigen@@$0?0$00$0A@@Eigen@@@Eigen@@$00$0?0$00@Eigen@@@3@$$CBV?$Block@$$CBV?$Block@V?$Block@V?$Matrix@M$02$02$0A@$02$02@Eigen@@$0?0$0?0$0A@@Eigen@@$0?0$0?0$0A@@Eigen@@$0?0$00$00@3@@Eigen@@@12@AEBU?$scalar_sum_op@MM@12@AEBV?$CwiseBinaryOp@U?$scalar_product_op@MM@internal@Eigen@@$$CBV?$Transpose@$$CBV?$Block@$$CBV?$Transpose@$$CBV?$Block@$$CBV?$Matrix@M$02$01$0A@$02$01@Eigen@@$0?0$00$0A@@Eigen@@@Eigen@@$00$0?0$00@Eigen@@@3@$$CBV?$Block@$$CBV?$Block@V?$Block@V?$Matrix@M$02$02$0A@$02$02@Eigen@@$0?0$0?0$0A@@Eigen@@$0?0$0?0$0A@@Eigen@@$0?0$00$00@3@@2@@Z
	??$run@V?$CwiseBinaryOp@U?$scalar_product_op@MM@internal@Eigen@@$$CBV?$Transpose@$$CBV?$Block@$$CBV?$Transpose@$$CBV?$Block@V?$Block@V?$Matrix@M$02$01$0A@$02$01@Eigen@@$02$00$00@Eigen@@$0?0$00$0A@@Eigen@@@Eigen@@$00$0?0$00@Eigen@@@3@$$CBV?$Block@$$CBV?$Block@V?$Block@V?$Matrix@M$02$01$0A@$02$01@Eigen@@$0?0$0?0$0A@@Eigen@@$0?0$0?0$0A@@Eigen@@$0?0$00$00@3@@Eigen@@@?$redux_impl@U?$scalar_sum_op@MM@internal@Eigen@@V?$redux_evaluator@V?$CwiseBinaryOp@U?$scalar_product_op@MM@internal@Eigen@@$$CBV?$Transpose@$$CBV?$Block@$$CBV?$Transpose@$$CBV?$Block@V?$Block@V?$Matrix@M$02$01$0A@$02$01@Eigen@@$02$00$00@Eigen@@$0?0$00$0A@@Eigen@@@Eigen@@$00$0?0$00@Eigen@@@3@$$CBV?$Block@$$CBV?$Block@V?$Block@V?$Matrix@M$02$01$0A@$02$01@Eigen@@$0?0$0?0$0A@@Eigen@@$0?0$0?0$0A@@Eigen@@$0?0$00$00@3@@Eigen@@@23@$02$0A@@internal@Eigen@@SAMAEBV?$redux_evaluator@V?$CwiseBinaryOp@U?$scalar_product_op@MM@internal@Eigen@@$$CBV?$Transpose@$$CBV?$Block@$$CBV?$Transpose@$$CBV?$Block@V?$Block@V?$Matrix@M$02$01$0A@$02$01@Eigen@@$02$00$00@Eigen@@$0?0$00$0A@@Eigen@@@Eigen@@$00$0?0$00@Eigen@@@3@$$CBV?$Block@$$CBV?$Block@V?$Block@V?$Matrix@M$02$01$0A@$02$01@Eigen@@$0?0$0?0$0A@@Eigen@@$0?0$0?0$0A@@Eigen@@$0?0$00$00@3@@Eigen@@@12@AEBU?$scalar_sum_op@MM@12@AEBV?$CwiseBinaryOp@U?$scalar_product_op@MM@internal@Eigen@@$$CBV?$Transpose@$$CBV?$Block@$$CBV?$Transpose@$$CBV?$Block@V?$Block@V?$Matrix@M$02$01$0A@$02$01@Eigen@@$02$00$00@Eigen@@$0?0$00$0A@@Eigen@@@Eigen@@$00$0?0$00@Eigen@@@3@$$CBV?$Block@$$CBV?$Block@V?$Block@V?$Matrix@M$02$01$0A@$02$01@Eigen@@$0?0$0?0$0A@@Eigen@@$0?0$0?0$0A@@Eigen@@$0?0$00$00@3@@2@@Z
	??$run@V?$CwiseUnaryOp@U?$scalar_abs2_op@M@internal@Eigen@@$$CBV?$Block@$$CBV?$Block@V?$Block@V?$Matrix@M$02$01$0A@$02$01@Eigen@@$02$00$00@Eigen@@$0?0$00$0A@@Eigen@@$0?0$00$0A@@3@@Eigen@@@?$redux_impl@U?$scalar_sum_op@MM@internal@Eigen@@V?$redux_evaluator@V?$CwiseUnaryOp@U?$scalar_abs2_op@M@internal@Eigen@@$$CBV?$Block@$$CBV?$Block@V?$Block@V?$Matrix@M$02$01$0A@$02$01@Eigen@@$02$00$00@Eigen@@$0?0$00$0A@@Eigen@@$0?0$00$0A@@3@@Eigen@@@23@$02$0A@@internal@Eigen@@SAMAEBV?$redux_evaluator@V?$CwiseUnaryOp@U?$scalar_abs2_op@M@internal@Eigen@@$$CBV?$Block@$$CBV?$Block@V?$Block@V?$Matrix@M$02$01$0A@$02$01@Eigen@@$02$00$00@Eigen@@$0?0$00$0A@@Eigen@@$0?0$00$0A@@3@@Eigen@@@12@AEBU?$scalar_sum_op@MM@12@AEBV?$CwiseUnaryOp@U?$scalar_abs2_op@M@internal@Eigen@@$$CBV?$Block@$$CBV?$Block@V?$Block@V?$Matrix@M$02$01$0A@$02$01@Eigen@@$02$00$00@Eigen@@$0?0$00$0A@@Eigen@@$0?0$00$0A@@3@@2@@Z
	??$run@V?$CwiseUnaryOp@U?$scalar_abs2_op@M@internal@Eigen@@$$CBV?$Block@V?$Block@V?$Matrix@M$02$01$0A@$02$01@Eigen@@$02$00$00@Eigen@@$0?0$00$0A@@3@@Eigen@@@?$redux_impl@U?$scalar_sum_op@MM@internal@Eigen@@V?$redux_evaluator@V?$CwiseUnaryOp@U?$scalar_abs2_op@M@internal@Eigen@@$$CBV?$Block@V?$Block@V?$Matrix@M$02$01$0A@$02$01@Eigen@@$02$00$00@Eigen@@$0?0$00$0A@@3@@Eigen@@@23@$02$0A@@internal@Eigen@@SAMAEBV?$redux_evaluator@V?$CwiseUnaryOp@U?$scalar_abs2_op@M@internal@Eigen@@$$CBV?$Block@V?$Block@V?$Matrix@M$02$01$0A@$02$01@Eigen@@$02$00$00@Eigen@@$0?0$00$0A@@3@@Eigen@@@12@AEBU?$scalar_sum_op@MM@12@AEBV?$CwiseUnaryOp@U?$scalar_abs2_op@M@internal@Eigen@@$$CBV?$Block@V?$Block@V?$Matrix@M$02$01$0A@$02$01@Eigen@@$02$00$00@Eigen@@$0?0$00$0A@@3@@2@@Z
	??$run@V?$Matrix@M$0?0$0?0$0A@$01$02@Eigen@@@?$triangular_product_impl@$05$00$$CBV?$Transpose@$$CBV?$Block@V?$Matrix@M$02$01$0A@$02$01@Eigen@@$0?0$0?0$0A@@Eigen@@@Eigen@@$0A@V?$Block@V?$Matrix@M$02$02$0A@$02$02@Eigen@@$0?0$0?0$0A@@2@$0A@@internal@Eigen@@SAXAEAV?$Matrix@M$0?0$0?0$0A@$01$02@2@AEBV?$Transpose@$$CBV?$Block@V?$Matrix@M$02$01$0A@$02$01@Eigen@@$0?0$0?0$0A@@Eigen@@@2@AEBV?$Block@V?$Matrix@M$02$02$0A@$02$02@Eigen@@$0?0$0?0$0A@@2@AEBM@Z
	??$run@V?$Matrix@M$0?0$0?0$0A@$0?0$02@Eigen@@@?$triangular_product_impl@$00$00$$CBV?$Transpose@$$CBV?$Matrix@M$0?0$0?0$00$0?0$0?0@Eigen@@@Eigen@@$0A@V?$Matrix@M$0?0$0?0$0A@$01$02@2@$0A@@internal@Eigen@@SAXAEAV?$Matrix@M$0?0$0?0$0A@$0?0$02@2@AEBV?$Transpose@$$CBV?$Matrix@M$0?0$0?0$00$0?0$0?0@Eigen@@@2@AEBV?$Matrix@M$0?0$0?0$0A@$01$02@2@AEBM@Z
	??$run@V?$Matrix@M$0?0$0?0$0A@$0?0$02@Eigen@@@?$triangular_product_impl@$01$00V?$Matrix@M$0?0$0?0$00$0?0$0?0@Eigen@@$0A@V?$Matrix@M$0?0$0?0$0A@$01$02@2@$0A@@internal@Eigen@@SAXAEAV?$Matrix@M$0?0$0?0$0A@$0?0$02@2@AEBV?$Matrix@M$0?0$0?0$00$0?0$0?0@2@AEBV?$Matrix@M$0?0$0?0$0A@$01$02@2@AEBM@Z
	??$run@V?$Transpose@$$CBV?$Block@$$CBV?$Block@V?$Matrix@M$02$01$0A@$02$01@Eigen@@$0?0$0?0$0A@@Eigen@@$0?0$0?0$0A@@Eigen@@@Eigen@@V?$Transpose@$$CBV?$CwiseBinaryOp@U?$scalar_product_op@MM@internal@Eigen@@$$CBV?$CwiseNullaryOp@U?$scalar_constant_op@M@internal@Eigen@@$$CBV?$Matrix@M$00$0?0$00$00$02@3@@3@$$CBV?$Transpose@$$CBV?$Block@$$CBV?$Block@$$CBV?$Block@V?$Matrix@M$02$01$0A@$02$01@Eigen@@$0?0$0?0$0A@@Eigen@@$0?0$00$00@Eigen@@$0?0$00$0A@@Eigen@@@3@@Eigen@@@2@V?$Transpose@V?$Block@V?$Block@V?$Matrix@M$0?0$0?0$00$0?0$0?0@Eigen@@$00$0?0$00@Eigen@@$00$0?0$0A@@Eigen@@@2@@?$trmv_selector@$05$00@internal@Eigen@@SAXAEBV?$Transpose@$$CBV?$Block@$$CBV?$Block@V?$Matrix@M$02$01$0A@$02$01@Eigen@@$0?0$0?0$0A@@Eigen@@$0?0$0?0$0A@@Eigen@@@2@AEBV?$Transpose@$$CBV?$CwiseBinaryOp@U?$scalar_product_op@MM@internal@Eigen@@$$CBV?$CwiseNullaryOp@U?$scalar_constant_op@M@internal@Eigen@@$$CBV?$Matrix@M$00$0?0$00$00$02@3@@3@$$CBV?$Transpose@$$CBV?$Block@$$CBV?$Block@$$CBV?$Block@V?$Matrix@M$02$01$0A@$02$01@Eigen@@$0?0$0?0$0A@@Eigen@@$0?0$00$00@Eigen@@$0?0$00$0A@@Eigen@@@3@@Eigen@@@2@AEAV?$Transpose@V?$Block@V?$Block@V?$Matrix@M$0?0$0?0$00$0?0$0?0@Eigen@@$00$0?0$00@Eigen@@$00$0?0$0A@@Eigen@@@2@AEBM@Z
	??$run@V?$generic_dense_assignment_kernel@U?$evaluator@V?$Block@V?$Block@V?$Block@V?$Matrix@M$02$01$0A@$02$01@Eigen@@$02$00$00@Eigen@@$0?0$00$0A@@Eigen@@$0?0$00$0A@@Eigen@@@internal@Eigen@@U?$evaluator@V?$CwiseBinaryOp@U?$scalar_quotient_op@MM@internal@Eigen@@$$CBV?$Block@$$CBV?$Block@V?$Block@V?$Matrix@M$02$01$0A@$02$01@Eigen@@$02$00$00@Eigen@@$0?0$00$0A@@Eigen@@$0?0$00$0A@@3@$$CBV?$CwiseNullaryOp@U?$scalar_constant_op@M@internal@Eigen@@$$CBV?$Matrix@M$0?0$00$0A@$02$00@3@@3@@Eigen@@@23@U?$assign_op@MM@23@$0A@@internal@Eigen@@@?$unaligned_dense_assignment_loop@$0A@@internal@Eigen@@SAXAEAV?$generic_dense_assignment_kernel@U?$evaluator@V?$Block@V?$Block@V?$Block@V?$Matrix@M$02$01$0A@$02$01@Eigen@@$02$00$00@Eigen@@$0?0$00$0A@@Eigen@@$0?0$00$0A@@Eigen@@@internal@Eigen@@U?$evaluator@V?$CwiseBinaryOp@U?$scalar_quotient_op@MM@internal@Eigen@@$$CBV?$Block@$$CBV?$Block@V?$Block@V?$Matrix@M$02$01$0A@$02$01@Eigen@@$02$00$00@Eigen@@$0?0$00$0A@@Eigen@@$0?0$00$0A@@3@$$CBV?$CwiseNullaryOp@U?$scalar_constant_op@M@internal@Eigen@@$$CBV?$Matrix@M$0?0$00$0A@$02$00@3@@3@@Eigen@@@23@U?$assign_op@MM@23@$0A@@12@_J1@Z
	??$run@V?$generic_dense_assignment_kernel@U?$evaluator@V?$Block@V?$Block@V?$Block@V?$Matrix@M$02$01$0A@$02$01@Eigen@@$02$00$00@Eigen@@$0?0$00$0A@@Eigen@@$0?0$00$0A@@Eigen@@@internal@Eigen@@U?$evaluator@V?$CwiseNullaryOp@U?$scalar_constant_op@M@internal@Eigen@@V?$Matrix@M$0?0$00$0A@$02$00@3@@Eigen@@@23@U?$assign_op@MM@23@$0A@@internal@Eigen@@@?$unaligned_dense_assignment_loop@$0A@@internal@Eigen@@SAXAEAV?$generic_dense_assignment_kernel@U?$evaluator@V?$Block@V?$Block@V?$Block@V?$Matrix@M$02$01$0A@$02$01@Eigen@@$02$00$00@Eigen@@$0?0$00$0A@@Eigen@@$0?0$00$0A@@Eigen@@@internal@Eigen@@U?$evaluator@V?$CwiseNullaryOp@U?$scalar_constant_op@M@internal@Eigen@@V?$Matrix@M$0?0$00$0A@$02$00@3@@Eigen@@@23@U?$assign_op@MM@23@$0A@@12@_J1@Z
	??$run@V?$generic_dense_assignment_kernel@U?$evaluator@V?$Block@V?$Block@V?$Matrix@M$02$02$0A@$02$02@Eigen@@$02$00$00@Eigen@@$0?0$00$0A@@Eigen@@@internal@Eigen@@U?$evaluator@V?$CwiseNullaryOp@U?$scalar_constant_op@M@internal@Eigen@@V?$Matrix@M$0?0$00$0A@$02$00@3@@Eigen@@@23@U?$assign_op@MM@23@$0A@@internal@Eigen@@@?$unaligned_dense_assignment_loop@$0A@@internal@Eigen@@SAXAEAV?$generic_dense_assignment_kernel@U?$evaluator@V?$Block@V?$Block@V?$Matrix@M$02$02$0A@$02$02@Eigen@@$02$00$00@Eigen@@$0?0$00$0A@@Eigen@@@internal@Eigen@@U?$evaluator@V?$CwiseNullaryOp@U?$scalar_constant_op@M@internal@Eigen@@V?$Matrix@M$0?0$00$0A@$02$00@3@@Eigen@@@23@U?$assign_op@MM@23@$0A@@12@_J1@Z
	??$run@V?$generic_dense_assignment_kernel@U?$evaluator@V?$Block@V?$Block@V?$Matrix@M$02$02$0A@$02$02@Eigen@@$0?0$0?0$0A@@Eigen@@$0?0$00$00@Eigen@@@internal@Eigen@@U?$evaluator@V?$CwiseBinaryOp@U?$scalar_product_op@MM@internal@Eigen@@$$CBV?$CwiseNullaryOp@U?$scalar_constant_op@M@internal@Eigen@@$$CBV?$Matrix@M$0?0$00$0A@$02$00@3@@3@$$CBV?$Map@V?$Matrix@M$0?0$00$0A@$02$00@Eigen@@$0A@V?$Stride@$0A@$0A@@2@@3@@Eigen@@@23@U?$sub_assign_op@MM@23@$0A@@internal@Eigen@@@?$unaligned_dense_assignment_loop@$0A@@internal@Eigen@@SAXAEAV?$generic_dense_assignment_kernel@U?$evaluator@V?$Block@V?$Block@V?$Matrix@M$02$02$0A@$02$02@Eigen@@$0?0$0?0$0A@@Eigen@@$0?0$00$00@Eigen@@@internal@Eigen@@U?$evaluator@V?$CwiseBinaryOp@U?$scalar_product_op@MM@internal@Eigen@@$$CBV?$CwiseNullaryOp@U?$scalar_constant_op@M@internal@Eigen@@$$CBV?$Matrix@M$0?0$00$0A@$02$00@3@@3@$$CBV?$Map@V?$Matrix@M$0?0$00$0A@$02$00@Eigen@@$0A@V?$Stride@$0A@$0A@@2@@3@@Eigen@@@23@U?$sub_assign_op@MM@23@$0A@@12@_J1@Z
	??$run@V?$generic_dense_assignment_kernel@U?$evaluator@V?$Block@V?$Block@V?$Matrix@M$0?0$0?0$00$0?0$0?0@Eigen@@$00$0?0$00@Eigen@@$00$0?0$0A@@Eigen@@@internal@Eigen@@U?$evaluator@V?$CwiseBinaryOp@U?$scalar_product_op@MM@internal@Eigen@@$$CBV?$CwiseNullaryOp@U?$scalar_constant_op@M@internal@Eigen@@$$CBV?$Matrix@M$00$0?0$00$00$0?0@3@@3@$$CBV?$Block@V?$Block@V?$Matrix@M$0?0$0?0$00$0?0$0?0@Eigen@@$00$0?0$00@Eigen@@$00$0?0$0A@@3@@Eigen@@@23@U?$add_assign_op@MM@23@$0A@@internal@Eigen@@@?$unaligned_dense_assignment_loop@$0A@@internal@Eigen@@SAXAEAV?$generic_dense_assignment_kernel@U?$evaluator@V?$Block@V?$Block@V?$Matrix@M$0?0$0?0$00$0?0$0?0@Eigen@@$00$0?0$00@Eigen@@$00$0?0$0A@@Eigen@@@internal@Eigen@@U?$evaluator@V?$CwiseBinaryOp@U?$scalar_product_op@MM@internal@Eigen@@$$CBV?$CwiseNullaryOp@U?$scalar_constant_op@M@internal@Eigen@@$$CBV?$Matrix@M$00$0?0$00$00$0?0@3@@3@$$CBV?$Block@V?$Block@V?$Matrix@M$0?0$0?0$00$0?0$0?0@Eigen@@$00$0?0$00@Eigen@@$00$0?0$0A@@3@@Eigen@@@23@U?$add_assign_op@MM@23@$0A@@12@_J1@Z
	??$run@V?$generic_dense_assignment_kernel@U?$evaluator@V?$Block@V?$Block@V?$Matrix@M$0?0$0?0$00$0?0$0?0@Eigen@@$00$0?0$00@Eigen@@$00$0?0$0A@@Eigen@@@internal@Eigen@@U?$evaluator@V?$CwiseNullaryOp@U?$scalar_constant_op@M@internal@Eigen@@V?$Matrix@M$00$0?0$00$00$0?0@3@@Eigen@@@23@U?$assign_op@MM@23@$0A@@internal@Eigen@@@?$unaligned_dense_assignment_loop@$0A@@internal@Eigen@@SAXAEAV?$generic_dense_assignment_kernel@U?$evaluator@V?$Block@V?$Block@V?$Matrix@M$0?0$0?0$00$0?0$0?0@Eigen@@$00$0?0$00@Eigen@@$00$0?0$0A@@Eigen@@@internal@Eigen@@U?$evaluator@V?$CwiseNullaryOp@U?$scalar_constant_op@M@internal@Eigen@@V?$Matrix@M$00$0?0$00$00$0?0@3@@Eigen@@@23@U?$assign_op@MM@23@$0A@@12@_J1@Z
	??$run@V?$generic_dense_assignment_kernel@U?$evaluator@V?$Map@V?$Matrix@M$0?0$00$0A@$02$00@Eigen@@$0A@V?$Stride@$0A@$0A@@2@@Eigen@@@internal@Eigen@@U?$evaluator@V?$Block@V?$Block@V?$Matrix@M$02$02$0A@$02$02@Eigen@@$0?0$0?0$0A@@Eigen@@$0?0$00$00@Eigen@@@23@U?$add_assign_op@MM@23@$0A@@internal@Eigen@@@?$unaligned_dense_assignment_loop@$0A@@internal@Eigen@@SAXAEAV?$generic_dense_assignment_kernel@U?$evaluator@V?$Map@V?$Matrix@M$0?0$00$0A@$02$00@Eigen@@$0A@V?$Stride@$0A@$0A@@2@@Eigen@@@internal@Eigen@@U?$evaluator@V?$Block@V?$Block@V?$Matrix@M$02$02$0A@$02$02@Eigen@@$0?0$0?0$0A@@Eigen@@$0?0$00$00@Eigen@@@23@U?$add_assign_op@MM@23@$0A@@12@_J1@Z
	??$run@V?$generic_dense_assignment_kernel@U?$evaluator@V?$Map@V?$Matrix@M$0?0$00$0A@$02$00@Eigen@@$0A@V?$Stride@$0A@$0A@@2@@Eigen@@@internal@Eigen@@U?$evaluator@V?$Product@V?$Block@V?$Block@V?$Matrix@M$02$02$0A@$02$02@Eigen@@$0?0$0?0$0A@@Eigen@@$0?0$0?0$0A@@Eigen@@V?$Block@$$CBV?$Matrix@M$02$01$0A@$02$01@Eigen@@$0?0$00$0A@@2@$00@Eigen@@@23@U?$assign_op@MM@23@$0A@@internal@Eigen@@@?$unaligned_dense_assignment_loop@$0A@@internal@Eigen@@SAXAEAV?$generic_dense_assignment_kernel@U?$evaluator@V?$Map@V?$Matrix@M$0?0$00$0A@$02$00@Eigen@@$0A@V?$Stride@$0A@$0A@@2@@Eigen@@@internal@Eigen@@U?$evaluator@V?$Product@V?$Block@V?$Block@V?$Matrix@M$02$02$0A@$02$02@Eigen@@$0?0$0?0$0A@@Eigen@@$0?0$0?0$0A@@Eigen@@V?$Block@$$CBV?$Matrix@M$02$01$0A@$02$01@Eigen@@$0?0$00$0A@@2@$00@Eigen@@@23@U?$assign_op@MM@23@$0A@@12@_J1@Z
	??$run@V?$generic_dense_assignment_kernel@U?$evaluator@V?$Matrix@M$0?0$00$0A@$02$00@Eigen@@@internal@Eigen@@U?$evaluator@V?$CwiseBinaryOp@U?$scalar_product_op@MM@internal@Eigen@@$$CBV?$CwiseNullaryOp@U?$scalar_constant_op@M@internal@Eigen@@$$CBV?$Matrix@M$0?0$00$0A@$02$00@3@@3@$$CBV?$Block@$$CBV?$Matrix@M$02$01$0A@$02$01@Eigen@@$0?0$00$0A@@3@@Eigen@@@23@U?$assign_op@MM@23@$0A@@internal@Eigen@@@?$unaligned_dense_assignment_loop@$0A@@internal@Eigen@@SAXAEAV?$generic_dense_assignment_kernel@U?$evaluator@V?$Matrix@M$0?0$00$0A@$02$00@Eigen@@@internal@Eigen@@U?$evaluator@V?$CwiseBinaryOp@U?$scalar_product_op@MM@internal@Eigen@@$$CBV?$CwiseNullaryOp@U?$scalar_constant_op@M@internal@Eigen@@$$CBV?$Matrix@M$0?0$00$0A@$02$00@3@@3@$$CBV?$Block@$$CBV?$Matrix@M$02$01$0A@$02$01@Eigen@@$0?0$00$0A@@3@@Eigen@@@23@U?$assign_op@MM@23@$0A@@12@_J1@Z
	??$run@V?$generic_dense_assignment_kernel@U?$evaluator@V?$Matrix@M$0?0$00$0A@$02$00@Eigen@@@internal@Eigen@@U?$evaluator@V?$CwiseBinaryOp@U?$scalar_product_op@MM@internal@Eigen@@$$CBV?$CwiseNullaryOp@U?$scalar_constant_op@M@internal@Eigen@@$$CBV?$Matrix@M$0?0$00$0A@$02$00@3@@3@$$CBV?$Block@V?$Block@V?$Matrix@M$02$01$0A@$02$01@Eigen@@$02$00$00@Eigen@@$0?0$00$0A@@3@@Eigen@@@23@U?$assign_op@MM@23@$0A@@internal@Eigen@@@?$unaligned_dense_assignment_loop@$0A@@internal@Eigen@@SAXAEAV?$generic_dense_assignment_kernel@U?$evaluator@V?$Matrix@M$0?0$00$0A@$02$00@Eigen@@@internal@Eigen@@U?$evaluator@V?$CwiseBinaryOp@U?$scalar_product_op@MM@internal@Eigen@@$$CBV?$CwiseNullaryOp@U?$scalar_constant_op@M@internal@Eigen@@$$CBV?$Matrix@M$0?0$00$0A@$02$00@3@@3@$$CBV?$Block@V?$Block@V?$Matrix@M$02$01$0A@$02$01@Eigen@@$02$00$00@Eigen@@$0?0$00$0A@@3@@Eigen@@@23@U?$assign_op@MM@23@$0A@@12@_J1@Z
	??$run@V?$generic_dense_assignment_kernel@U?$evaluator@V?$Matrix@M$0?0$00$0A@$02$00@Eigen@@@internal@Eigen@@U?$evaluator@V?$CwiseBinaryOp@U?$scalar_product_op@MM@internal@Eigen@@$$CBV?$CwiseNullaryOp@U?$scalar_constant_op@M@internal@Eigen@@$$CBV?$Matrix@M$0?0$00$0A@$02$00@3@@3@$$CBV?$Map@V?$Matrix@M$0?0$00$0A@$02$00@Eigen@@$0A@V?$Stride@$0A@$0A@@2@@3@@Eigen@@@23@U?$assign_op@MM@23@$0A@@internal@Eigen@@@?$unaligned_dense_assignment_loop@$0A@@internal@Eigen@@SAXAEAV?$generic_dense_assignment_kernel@U?$evaluator@V?$Matrix@M$0?0$00$0A@$02$00@Eigen@@@internal@Eigen@@U?$evaluator@V?$CwiseBinaryOp@U?$scalar_product_op@MM@internal@Eigen@@$$CBV?$CwiseNullaryOp@U?$scalar_constant_op@M@internal@Eigen@@$$CBV?$Matrix@M$0?0$00$0A@$02$00@3@@3@$$CBV?$Map@V?$Matrix@M$0?0$00$0A@$02$00@Eigen@@$0A@V?$Stride@$0A@$0A@@2@@3@@Eigen@@@23@U?$assign_op@MM@23@$0A@@12@_J1@Z
	??$run@V?$generic_dense_assignment_kernel@U?$evaluator@V?$Matrix@M$0?0$0?0$0A@$01$02@Eigen@@@internal@Eigen@@U?$evaluator@V?$Matrix@M$0?0$0?0$0A@$0?0$02@Eigen@@@23@U?$assign_op@MM@23@$0A@@internal@Eigen@@@?$unaligned_dense_assignment_loop@$0A@@internal@Eigen@@SAXAEAV?$generic_dense_assignment_kernel@U?$evaluator@V?$Matrix@M$0?0$0?0$0A@$01$02@Eigen@@@internal@Eigen@@U?$evaluator@V?$Matrix@M$0?0$0?0$0A@$0?0$02@Eigen@@@23@U?$assign_op@MM@23@$0A@@12@_J1@Z
	??$scaleAndAddTo@V?$Block@V?$Block@V?$Matrix@M$0?0$0?0$00$0?0$0?0@Eigen@@$00$0?0$00@Eigen@@$00$0?0$0A@@Eigen@@@?$generic_product_impl@V?$CwiseBinaryOp@U?$scalar_product_op@MM@internal@Eigen@@$$CBV?$CwiseNullaryOp@U?$scalar_constant_op@M@internal@Eigen@@$$CBV?$Matrix@M$00$0?0$00$00$02@3@@3@$$CBV?$Transpose@$$CBV?$Block@$$CBV?$Block@$$CBV?$Block@V?$Matrix@M$02$01$0A@$02$01@Eigen@@$0?0$0?0$0A@@Eigen@@$0?0$00$00@Eigen@@$0?0$00$0A@@Eigen@@@3@@Eigen@@V?$TriangularView@$$CBV?$Block@$$CBV?$Block@V?$Matrix@M$02$01$0A@$02$01@Eigen@@$0?0$0?0$0A@@Eigen@@$0?0$0?0$0A@@Eigen@@$04@2@UDenseShape@2@UTriangularShape@2@$02@internal@Eigen@@SAXAEAV?$Block@V?$Block@V?$Matrix@M$0?0$0?0$00$0?0$0?0@Eigen@@$00$0?0$00@Eigen@@$00$0?0$0A@@2@AEBV?$CwiseBinaryOp@U?$scalar_product_op@MM@internal@Eigen@@$$CBV?$CwiseNullaryOp@U?$scalar_constant_op@M@internal@Eigen@@$$CBV?$Matrix@M$00$0?0$00$00$02@3@@3@$$CBV?$Transpose@$$CBV?$Block@$$CBV?$Block@$$CBV?$Block@V?$Matrix@M$02$01$0A@$02$01@Eigen@@$0?0$0?0$0A@@Eigen@@$0?0$00$00@Eigen@@$0?0$00$0A@@Eigen@@@3@@2@AEBV?$TriangularView@$$CBV?$Block@$$CBV?$Block@V?$Matrix@M$02$01$0A@$02$01@Eigen@@$0?0$0?0$0A@@Eigen@@$0?0$0?0$0A@@Eigen@@$04@2@AEBM@Z
	??$setFromTwoVectors@V?$Block@$$CBV?$CwiseNullaryOp@U?$scalar_identity_op@M@internal@Eigen@@V?$Matrix@M$02$02$0A@$02$02@3@@Eigen@@$02$00$0A@@Eigen@@V?$Matrix@M$02$00$0A@$02$00@2@@?$QuaternionBase@V?$Quaternion@M$0A@@Eigen@@@Eigen@@QEAAAEAV?$Quaternion@M$0A@@1@AEBV?$MatrixBase@V?$Block@$$CBV?$CwiseNullaryOp@U?$scalar_identity_op@M@internal@Eigen@@V?$Matrix@M$02$02$0A@$02$02@3@@Eigen@@$02$00$0A@@Eigen@@@1@AEBV?$MatrixBase@V?$Matrix@M$02$00$0A@$02$00@Eigen@@@1@@Z
	??$triangularView@$01@?$MatrixBase@V?$Block@$$CBV?$Matrix@M$02$01$0A@$02$01@Eigen@@$0?0$0?0$0A@@Eigen@@@Eigen@@QEBA?BV?$TriangularView@$$CBV?$Block@$$CBV?$Matrix@M$02$01$0A@$02$01@Eigen@@$0?0$0?0$0A@@Eigen@@$01@1@XZ
	??$triangularView@$01@?$MatrixBase@V?$Matrix@M$0?0$0?0$00$0?0$0?0@Eigen@@@Eigen@@QEAA?AV?$TriangularView@V?$Matrix@M$0?0$0?0$00$0?0$0?0@Eigen@@$01@1@XZ
	??$triangularView@$04@?$MatrixBase@V?$Block@$$CBV?$Block@V?$Matrix@M$02$01$0A@$02$01@Eigen@@$0?0$0?0$0A@@Eigen@@$0?0$0?0$0A@@Eigen@@@Eigen@@QEBA?BV?$TriangularView@$$CBV?$Block@$$CBV?$Block@V?$Matrix@M$02$01$0A@$02$01@Eigen@@$0?0$0?0$0A@@Eigen@@$0?0$0?0$0A@@Eigen@@$04@1@XZ
	??$triangularView@$09@?$MatrixBase@V?$Matrix@M$02$02$0A@$02$02@Eigen@@@Eigen@@QEAA?AV?$TriangularView@V?$Matrix@M$02$02$0A@$02$02@Eigen@@$09@1@XZ
	??$use_facet@V?$codecvt@DDU_Mbstatet@@@std@@@std@@YAAEBV?$codecvt@DDU_Mbstatet@@@0@AEBVlocale@0@@Z
	??$use_facet@V?$time_put@DV?$ostreambuf_iterator@DU?$char_traits@D@std@@@std@@@std@@@std@@YAAEBV?$time_put@DV?$ostreambuf_iterator@DU?$char_traits@D@std@@@std@@@0@AEBVlocale@0@@Z
	??$visit@U?$max_coeff_visitor@V?$Block@V?$Matrix@M$00$01$00$00$01@Eigen@@$00$0?0$0A@@Eigen@@$0A@@internal@Eigen@@@?$DenseBase@V?$Block@V?$Matrix@M$00$01$00$00$01@Eigen@@$00$0?0$0A@@Eigen@@@Eigen@@QEBAXAEAU?$max_coeff_visitor@V?$Block@V?$Matrix@M$00$01$00$00$01@Eigen@@$00$0?0$0A@@Eigen@@$0A@@internal@1@@Z
	??$visit@U?$max_coeff_visitor@V?$Block@V?$Matrix@M$01$00$0A@$01$00@Eigen@@$0?0$00$0A@@Eigen@@$0A@@internal@Eigen@@@?$DenseBase@V?$Block@V?$Matrix@M$01$00$0A@$01$00@Eigen@@$0?0$00$0A@@Eigen@@@Eigen@@QEBAXAEAU?$max_coeff_visitor@V?$Block@V?$Matrix@M$01$00$0A@$01$00@Eigen@@$0?0$00$0A@@Eigen@@$0A@@internal@1@@Z
	??0?$basic_string@DU?$char_traits@D@std@@V?$allocator@D@2@@std@@QEAA@QEBD@Z
	??0?$basic_string@DU?$char_traits@D@std@@V?$allocator@D@2@@std@@QEAA@U_String_constructor_concat_tag@1@AEAV01@1@Z
	??0CacheSizes@internal@Eigen@@QEAA@XZ
	??0PSMoveControllerDeviceInterface@@QEAA@H@Z
	??0PSMoveDataFetcher@@AEAA@XZ
	??0ServerControllerView@@QEAA@H@Z
	??0ServerDeviceView@@QEAA@H@Z
	??0bad_alloc@std@@QEAA@AEBV01@@Z
	??0bad_alloc@std@@QEAA@XZ
	??0bad_array_new_length@std@@QEAA@AEBV01@@Z
	??0bad_array_new_length@std@@QEAA@XZ
	??0bad_cast@std@@QEAA@AEBV01@@Z
	??0bad_cast@std@@QEAA@XZ
	??0exception@std@@QEAA@AEBV01@@Z
	??0runtime_error@std@@QEAA@AEBV01@@Z
	??0runtime_error@std@@QEAA@PEBD@Z
	??1?$Matrix@M$0?0$0?0$00$0?0$0?0@Eigen@@QEAA@XZ
	??1?$PlainObjectBase@V?$Matrix@M$0?0$0?0$00$0?0$0?0@Eigen@@@Eigen@@QEAA@XZ
	??1?$PlainObjectBase@V?$Matrix@M$0?0$0?0$0A@$0?0$02@Eigen@@@Eigen@@QEAA@XZ
	??1?$_Ref_count_obj2@VServerControllerView@@@std@@UEAA@XZ
	??1?$aligned_stack_memory_handler@M@internal@Eigen@@QEAA@XZ
	??1?$basic_filebuf@DU?$char_traits@D@std@@@std@@UEAA@XZ
	??1?$basic_ofstream@DU?$char_traits@D@std@@@std@@UEAA@XZ
	??1?$basic_string@DU?$char_traits@D@std@@V?$allocator@D@2@@std@@QEAA@XZ
	??1?$basic_stringbuf@DU?$char_traits@D@std@@V?$allocator@D@2@@std@@UEAA@XZ
	??1?$basic_stringstream@DU?$char_traits@D@std@@V?$allocator@D@2@@std@@UEAA@XZ
	??1?$gemm_blocking_space@$0A@MM$0?0$02$0?0$03$0A@@internal@Eigen@@QEAA@XZ
	??1?$shared_ptr@VServerControllerView@@@std@@QEAA@XZ
	??1?$unique_ptr@VControllerOpticalPoseEstimation@@U?$default_delete@VControllerOpticalPoseEstimation@@@std@@@std@@QEAA@XZ
	??1?$unique_ptr@VPSMoveControllerDeviceInterface@@U?$default_delete@VPSMoveControllerDeviceInterface@@@std@@@std@@QEAA@XZ
	??1?$unique_ptr@V_Facet_base@std@@U?$default_delete@V_Facet_base@std@@@2@@std@@QEAA@XZ
	??1IDeviceInterface@@UEAA@XZ
	??1PSMoveControllerDeviceInterface@@UEAA@XZ
	??1PSMoveDataFetcher@@AEAA@XZ
	??1ServerControllerView@@UEAA@XZ
	??1ServerDeviceView@@UEAA@XZ
	??1_Ref_count_base@std@@UEAA@XZ
	??1_Sentry_base@?$basic_ostream@DU?$char_traits@D@std@@@std@@QEAA@XZ
	??1bad_alloc@std@@UEAA@XZ
	??1bad_array_new_length@std@@UEAA@XZ
	??1bad_cast@std@@UEAA@XZ
	??1exception@std@@UEAA@XZ
	??1locale@std@@QEAA@XZ
	??1runtime_error@std@@UEAA@XZ
	??1sentry@?$basic_ostream@DU?$char_traits@D@std@@@std@@QEAA@XZ
	??R?$gebp_kernel@MM_JV?$blas_data_mapper@M_J$0A@$0A@$00@internal@Eigen@@$07$03$0A@$0A@@internal@Eigen@@QEAAXAEBV?$blas_data_mapper@M_J$0A@$0A@$00@12@PEBM1_J22M2222@Z
	??R?$gemm_pack_lhs@M_JV?$const_blas_data_mapper@M_J$00@internal@Eigen@@$07$03T__m128@@$00$0A@$0A@@internal@Eigen@@QEAAXPEAMAEBV?$const_blas_data_mapper@M_J$00@12@_J222@Z
	??R?$gemm_pack_lhs@M_JV?$const_blas_data_mapper@M_J$0A@@internal@Eigen@@$07$03T__m128@@$0A@$0A@$0A@@internal@Eigen@@QEAAXPEAMAEBV?$const_blas_data_mapper@M_J$0A@@12@_J222@Z
	??R?$gemm_pack_rhs@M_JV?$const_blas_data_mapper@M_J$0A@@internal@Eigen@@$03$0A@$0A@$0A@@internal@Eigen@@QEAAXPEAMAEBV?$const_blas_data_mapper@M_J$0A@@12@_J222@Z
	??_7?$_Ref_count_obj2@VServerControllerView@@@std@@6B@
	??_7?$basic_filebuf@DU?$char_traits@D@std@@@std@@6B@
	??_7?$basic_ofstream@DU?$char_traits@D@std@@@std@@6B@
	??_7?$basic_stringbuf@DU?$char_traits@D@std@@V?$allocator@D@2@@std@@6B@
	??_7?$basic_stringstream@DU?$char_traits@D@std@@V?$allocator@D@2@@std@@6B@
	??_7IDeviceInterface@@6B@
	??_7PSMoveControllerDeviceInterface@@6B@
	??_7ServerControllerView@@6B@
	??_7ServerDeviceView@@6B@
	??_7bad_alloc@std@@6B@
	??_7bad_array_new_length@std@@6B@
	??_7bad_cast@std@@6B@
	??_7exception@std@@6B@
	??_7runtime_error@std@@6B@
	??_D?$basic_ofstream@DU?$char_traits@D@std@@@std@@QEAAXXZ
	??_D?$basic_stringstream@DU?$char_traits@D@std@@V?$allocator@D@2@@std@@QEAAXXZ
	?_Delete_this@?$_Ref_count_obj2@VServerControllerView@@@std@@EEAAXXZ
	?_Destroy@?$_Ref_count_obj2@VServerControllerView@@@std@@EEAAXXZ
	?_Endwrite@?$basic_filebuf@DU?$char_traits@D@std@@@std@@IEAA_NXZ
	?_Get_deleter@_Ref_count_base@std@@UEBAPEAXAEBVtype_info@@@Z
	?_Lock@?$basic_filebuf@DU?$char_traits@D@std@@@std@@UEAAXXZ
	?_Maklocwcs@std@@YAPEA_WPEB_W@Z
	?_Reset_back@?$basic_filebuf@DU?$char_traits@D@std@@@std@@AEAAXXZ
	?_Throw_bad_array_new_length@std@@YAXXZ
	?_Throw_bad_cast@std@@YAXXZ
	?_Unlock@?$basic_filebuf@DU?$char_traits@D@std@@@std@@UEAAXXZ
	?_Xlen_string@std@@YAXXZ
	?_Xlength@?$vector@MV?$allocator@M@std@@@std@@CAXXZ
	?aligned_malloc@internal@Eigen@@YAPEAX_K@Z
	?allocate@?$JacobiSVD@V?$Matrix@M$01$02$0A@$01$02@Eigen@@$01@Eigen@@AEAAX_J0I@Z
	?allocate_device_interface@ServerControllerView@@UEAA_NPEBVDeviceEnumerator@@@Z
	?append@?$basic_string@DU?$char_traits@D@std@@V?$allocator@D@2@@std@@QEAAAEAV12@QEBD_K@Z
	?assign@?$basic_string@DU?$char_traits@D@std@@V?$allocator@D@2@@std@@QEAAAEAV12@QEBD_K@Z
	?close@PSMoveControllerDeviceInterface@@UEAAXXZ
	?close@ServerControllerView@@UEAAXXZ
	?close@ServerDeviceView@@UEAAXXZ
	?compute@?$JacobiSVD@V?$Matrix@M$01$02$0A@$01$02@Eigen@@$01@Eigen@@QEAAAEAV12@AEBV?$Matrix@M$01$02$0A@$01$02@2@I@Z
	?computeInPlace@?$ColPivHouseholderQR@V?$Matrix@M$02$01$0A@$02$01@Eigen@@@Eigen@@IEAAXXZ
	?deallocate@?$allocator@D@std@@QEAAXQEAD_K@Z
	?free_device_interface@ServerControllerView@@UEAAXXZ
	?getControllerState@PSMoveControllerDeviceInterface@@UEBAPEBUCommonControllerState@@XZ
	?getControllerViewPtr@DeviceManager@@QEAA?AV?$shared_ptr@VServerControllerView@@@std@@H@Z
	?getDevice@ServerControllerView@@UEBAPEAVIDeviceInterface@@XZ
	?getDeviceID@PSMoveControllerDeviceInterface@@UEBAHXZ
	?getDeviceType@PSMoveControllerDeviceInterface@@UEBA?AW4eDeviceType@CommonDeviceState@@XZ
	?getFilteredPose@ServerControllerView@@QEBA?AUCommonDevicePose@@M@Z
	?getInstance@DeviceManager@@SAPEAV1@XZ
	?getInstance@PSMoveDataFetcher@@SAAEAV1@XZ
	?getIsBluetooth@PSMoveControllerDeviceInterface@@QEBA_NXZ
	?getIsOpen@PSMoveControllerDeviceInterface@@UEBA_NXZ
	?getIsOpen@ServerDeviceView@@QEBA_NXZ
	?getLatestData@PSMoveControllerDeviceInterface@@UEBA?AUDeviceData@@XZ
	?getLatestIMUData@PSMoveControllerDeviceInterface@@UEBA?AUIMUData@@XZ
	?getLevelString@LoggerUtil@@CA?AV?$basic_string@DU?$char_traits@D@std@@V?$allocator@D@2@@std@@W4LogLevel@@@Z
	?getState@ServerControllerView@@QEBAPEBUCommonControllerState@@XZ
	?getTimestamp@LoggerUtil@@CA?AV?$basic_string@DU?$char_traits@D@std@@V?$allocator@D@2@@std@@XZ
	?getTrackingColorID@PSMoveControllerDeviceInterface@@UEBA_NAEAW4eCommonTrackingColorID@@@Z
	?get_pose_data@PSMoveDataFetcher@@QEAA?AUCommonDevicePose@@XZ
	?householderQ@?$ColPivHouseholderQR@V?$Matrix@M$02$01$0A@$02$01@Eigen@@@Eigen@@QEBA?AV?$HouseholderSequence@V?$Matrix@M$02$01$0A@$02$01@Eigen@@V?$Matrix@M$01$00$0A@$01$00@2@$00@2@XZ
	?imbue@?$basic_filebuf@DU?$char_traits@D@std@@@std@@MEAAXAEBVlocale@2@@Z
	?initialize@PSMoveDataFetcher@@QEAA_NXZ
	?isControllerConnected@PSMoveDataFetcher@@QEBA_NXZ
	?log@LoggerUtil@@SAXW4LogLevel@@AEBV?$basic_string@DU?$char_traits@D@std@@V?$allocator@D@2@@std@@@Z
	?makeHouseholderInPlace@?$MatrixBase@V?$Block@V?$Block@V?$Matrix@M$02$01$0A@$02$01@Eigen@@$02$00$00@Eigen@@$0?0$00$0A@@Eigen@@@Eigen@@QEAAXAEAM0@Z
	?makeJacobi@?$JacobiRotation@M@Eigen@@QEAA_NAEBM00@Z
	?matchesDeviceEnumerator@PSMoveControllerDeviceInterface@@UEBA_NPEBVDeviceEnumerator@@@Z
	?matchesDeviceEnumerator@ServerDeviceView@@QEBA_NPEBVDeviceEnumerator@@@Z
	?noalias@?$MatrixBase@V?$Block@V?$Block@V?$Matrix@M$02$01$0A@$02$01@Eigen@@$0?0$0?0$0A@@Eigen@@$0?0$0?0$0A@@Eigen@@@Eigen@@QEAA?AV?$NoAlias@V?$Block@V?$Block@V?$Matrix@M$02$01$0A@$02$01@Eigen@@$0?0$0?0$0A@@Eigen@@$0?0$0?0$0A@@Eigen@@VMatrixBase@2@@2@XZ
	?noalias@?$MatrixBase@V?$Block@V?$Block@V?$Matrix@M$02$02$0A@$02$02@Eigen@@$0?0$0?0$0A@@Eigen@@$0?0$0?0$0A@@Eigen@@@Eigen@@QEAA?AV?$NoAlias@V?$Block@V?$Block@V?$Matrix@M$02$02$0A@$02$02@Eigen@@$0?0$0?0$0A@@Eigen@@$0?0$0?0$0A@@Eigen@@VMatrixBase@2@@2@XZ
	?noalias@?$MatrixBase@V?$Block@V?$Block@V?$Matrix@M$0?0$0?0$00$0?0$0?0@Eigen@@$00$0?0$00@Eigen@@$00$0?0$0A@@Eigen@@@Eigen@@QEAA?AV?$NoAlias@V?$Block@V?$Block@V?$Matrix@M$0?0$0?0$00$0?0$0?0@Eigen@@$00$0?0$00@Eigen@@$00$0?0$0A@@Eigen@@VMatrixBase@2@@2@XZ
	?noalias@?$MatrixBase@V?$Block@V?$Matrix@M$02$02$0A@$02$02@Eigen@@$0?0$0?0$0A@@Eigen@@@Eigen@@QEAA?AV?$NoAlias@V?$Block@V?$Matrix@M$02$02$0A@$02$02@Eigen@@$0?0$0?0$0A@@Eigen@@VMatrixBase@2@@2@XZ
	?noalias@?$MatrixBase@V?$Map@V?$Matrix@M$00$0?0$00$00$01@Eigen@@$0A@V?$Stride@$0A@$0A@@2@@Eigen@@@Eigen@@QEAA?AV?$NoAlias@V?$Map@V?$Matrix@M$00$0?0$00$00$01@Eigen@@$0A@V?$Stride@$0A@$0A@@2@@Eigen@@VMatrixBase@2@@2@XZ
	?noalias@?$MatrixBase@V?$Map@V?$Matrix@M$00$0?0$00$00$02@Eigen@@$0A@V?$Stride@$0A@$0A@@2@@Eigen@@@Eigen@@QEAA?AV?$NoAlias@V?$Map@V?$Matrix@M$00$0?0$00$00$02@Eigen@@$0A@V?$Stride@$0A@$0A@@2@@Eigen@@VMatrixBase@2@@2@XZ
	?noalias@?$MatrixBase@V?$Map@V?$Matrix@M$0?0$00$0A@$02$00@Eigen@@$0A@V?$Stride@$0A@$0A@@2@@Eigen@@@Eigen@@QEAA?AV?$NoAlias@V?$Map@V?$Matrix@M$0?0$00$0A@$02$00@Eigen@@$0A@V?$Stride@$0A@$0A@@2@@Eigen@@VMatrixBase@2@@2@XZ
	?now@steady_clock@chrono@std@@SA?AV?$time_point@Usteady_clock@chrono@std@@V?$duration@_JU?$ratio@$00$0DLJKMKAA@@std@@@23@@23@XZ
	?open@PSMoveControllerDeviceInterface@@UEAA_NXZ
	?open@ServerControllerView@@UEAA_NPEBVDeviceEnumerator@@@Z
	?open@ServerDeviceView@@UEAA_NPEBVDeviceEnumerator@@@Z
	?overflow@?$basic_filebuf@DU?$char_traits@D@std@@@std@@MEAAHH@Z
	?overflow@?$basic_stringbuf@DU?$char_traits@D@std@@V?$allocator@D@2@@std@@MEAAHH@Z
	?pbackfail@?$basic_filebuf@DU?$char_traits@D@std@@@std@@MEAAHH@Z
	?pbackfail@?$basic_stringbuf@DU?$char_traits@D@std@@V?$allocator@D@2@@std@@MEAAHH@Z
	?poll@PSMoveControllerDeviceInterface@@UEAA?AW4ePollResult@IDeviceInterface@@XZ
	?poll@ServerDeviceView@@UEAA_NXZ
	?publish@ServerDeviceView@@UEAAXXZ
	?publish_device_data_frame@ServerControllerView@@UEAAXXZ
	?queryCacheSizes_intel@internal@Eigen@@YAXAEAH00H@Z
	?queryCacheSizes_intel_codes@internal@Eigen@@YAXAEAH00@Z
	?reset@?$unique_ptr@VPSMoveControllerDeviceInterface@@U?$default_delete@VPSMoveControllerDeviceInterface@@@std@@@std@@QEAAXPEAVPSMoveControllerDeviceInterface@@@Z
	?resetPoseFilter@ServerControllerView@@AEAAXXZ
	?resize@?$DenseStorage@M$0?0$0?0$0?0$00@Eigen@@QEAAX_J00@Z
	?resize@?$DenseStorage@M$0?0$0?0$0?0$0A@@Eigen@@QEAAX_J00@Z
	?run@?$general_matrix_vector_product@_JMV?$const_blas_data_mapper@M_J$00@internal@Eigen@@$00$0A@MV123@$0A@$00@internal@Eigen@@SAX_J0AEBV?$const_blas_data_mapper@M_J$00@23@1PEAM0M@Z
	?run@?$general_matrix_vector_product@_JMV?$const_blas_data_mapper@M_J$00@internal@Eigen@@$00$0A@MV123@$0A@$0A@@internal@Eigen@@SAX_J0AEBV?$const_blas_data_mapper@M_J$00@23@1PEAM0M@Z
	?run@?$product_triangular_matrix_matrix@M_J$00$00$0A@$0A@$0A@$0A@$0A@$00$0A@@internal@Eigen@@SAX_J00PEBM010PEAM00AEBMAEAV?$level3_blocking@MM@23@@Z
	?run@?$product_triangular_matrix_matrix@M_J$01$00$00$0A@$0A@$0A@$0A@$00$0A@@internal@Eigen@@SAX_J00PEBM010PEAM00AEBMAEAV?$level3_blocking@MM@23@@Z
	?run@?$product_triangular_matrix_matrix@M_J$04$00$0A@$0A@$0A@$0A@$0A@$00$0A@@internal@Eigen@@SAX_J00PEBM010PEAM00AEBMAEAV?$level3_blocking@MM@23@@Z
	?run@?$product_triangular_matrix_matrix@M_J$05$00$00$0A@$0A@$0A@$0A@$00$0A@@internal@Eigen@@SAX_J00PEBM010PEAM00AEBMAEAV?$level3_blocking@MM@23@@Z
	?run@?$qr_preconditioner_impl@V?$Matrix@M$01$02$0A@$01$02@Eigen@@$01$0A@$00@internal@Eigen@@QEAA_NAEAV?$JacobiSVD@V?$Matrix@M$01$02$0A@$01$02@Eigen@@$01@3@AEBV?$Matrix@M$01$02$0A@$01$02@3@@Z
	?run@?$triangular_matrix_vector_product@_J$05M$0A@M$0A@$00$0A@@internal@Eigen@@SAX_J0PEBM010PEAM0AEBM@Z
	?seekoff@?$basic_filebuf@DU?$char_traits@D@std@@@std@@MEAA?AV?$fpos@U_Mbstatet@@@2@_JHH@Z
	?seekoff@?$basic_stringbuf@DU?$char_traits@D@std@@V?$allocator@D@2@@std@@MEAA?AV?$fpos@U_Mbstatet@@@2@_JHH@Z
	?seekpos@?$basic_filebuf@DU?$char_traits@D@std@@@std@@MEAA?AV?$fpos@U_Mbstatet@@@2@V32@H@Z
	?seekpos@?$basic_stringbuf@DU?$char_traits@D@std@@V?$allocator@D@2@@std@@MEAA?AV?$fpos@U_Mbstatet@@@2@V32@H@Z
	?setTrackingColorID@PSMoveControllerDeviceInterface@@UEAA_NW4eCommonTrackingColorID@@@Z
	?setbuf@?$basic_filebuf@DU?$char_traits@D@std@@@std@@MEAAPEAV?$basic_streambuf@DU?$char_traits@D@std@@@2@PEAD_J@Z
	?setupLogger@LoggerUtil@@SAXXZ
	?sync@?$basic_filebuf@DU?$char_traits@D@std@@@std@@MEAAHXZ
	?throw_std_bad_alloc@internal@Eigen@@YAXXZ
	?uflow@?$basic_filebuf@DU?$char_traits@D@std@@@std@@MEAAHXZ
	?underflow@?$basic_filebuf@DU?$char_traits@D@std@@@std@@MEAAHXZ
	?underflow@?$basic_stringbuf@DU?$char_traits@D@std@@V?$allocator@D@2@@std@@MEAAHXZ
	?updatePoseFilter@ServerControllerView@@AEAAXAEBUIMUData@@@Z
	?updateStateAndPredict@ServerControllerView@@QEAAXXZ
	?what@exception@std@@UEBAPEBDXZ
	?xsgetn@?$basic_filebuf@DU?$char_traits@D@std@@@std@@MEAA_JPEAD_J@Z
	?xsputn@?$basic_filebuf@DU?$char_traits@D@std@@@std@@MEAA_JPEBD_J@Z
